******************************************************************************
                  TI ARM Linker PC v20.2.5                     
******************************************************************************
>> Linked Thu Mar  3 19:17:22 2022

OUTPUT FILE NAME:   <collector_LP_CC2652RB_tirtos7_ccs.out>
ENTRY POINT SYMBOL: "_c_int00"  address: 00011759


MEMORY CONFIGURATION

         name            origin    length      used     unused   attr    fill
----------------------  --------  ---------  --------  --------  ----  --------
  FLASH                 00000000   00056000  0001f204  00036dfc  R  X
  FLASH_LAST            00056000   00002000  00002000  00000000  R  X
  SRAM                  20000000   00014000  00004181  0000fe7f  RW X


SEGMENT ALLOCATION MAP

run origin  load origin   length   init length attrs members
----------  ----------- ---------- ----------- ----- -------
00000000    00000000    00016ecc   00016ecc    r-x
  00000000    00000000    0000003c   0000003c    r-- .resetVecs
  0000003c    0000003c    00000004   00000004    r-x .text.1
  00000040    00000040    0000232c   0000232c    r-- .const
  0000236c    0000236c    00014b60   00014b60    r-x .text.2
00016ecc    00016ecc    00000008   00000008    rw-
  00016ecc    00016ecc    00000008   00000008    rw- .args
00016ed8    00016ed8    00000330   00000330    r--
  00016ed8    00016ed8    00000330   00000330    r-- .cinit
0004e000    0004e000    00008000   00000000    rw-
  0004e000    0004e000    00008000   00000000    rw- .TI.bound:flashBuf0
00056000    00056000    00002000   00002000    r-x
  00056000    00056000    00001fa8   00001fa8    r-x .text.3
  00057fa8    00057fa8    00000058   00000058    r-- .ccfg
2000010c    2000010c    00000010   00000000    rw-
  2000010c    2000010c    00000010   00000000    rw- .data:RAM_MAC_BASE_ADDR
20001850    20001850    00000010   00000000    rw-
  20001850    20001850    00000010   00000000    rw- .TI.bound:dmaUart1RxControlTableEntry
20001860    20001860    00003b29   00000000    rw-
  20001860    20001860    00000010   00000000    rw- .TI.bound:dmaUart1TxControlTableEntry
  20001870    20001870    00002bc1   00000000    rw- .data
  20004438    20004438    00000f51   00000000    rw- .bss
20013aa0    20013aa0    00000560   00000000    rw-
  20013aa0    20013aa0    00000560   00000000    rw- .stack


SECTION ALLOCATION MAP

 output                                  attributes/
section   page    origin      length       input sections
--------  ----  ----------  ----------   ----------------
.resetVecs 
*          0    00000000    0000003c     
                  00000000    0000003c     ti_sysbios_config.obj (.resetVecs)

.vecs      0    20000000    000000d8     NOLOAD SECTION
                  20000000    000000d8     ti_sysbios_config.obj (.vecs)

.const     0    00000040    0000232c     
                  00000040    00000b40     ti_sysbios_config.obj (.const:$O2$$)
                  00000b80    00000568     maclib_secure_cc26x2_2_4g_tirtos7.a : hmac_rom_init.obj (.const:HMAC_ROM_Flash_JT)
                  000010e8    00000188     <whole-program> (.const:.string)
                  00001270    00000168     rf_multiMode_cc26x2.a : rf_patch_cpe_ieee_802_15_4.c.cc26x2.ccs.o (.const:patchImageIeee802154)
                  000013d8    00000150     driverlib.lib : osc.obj (.const:$O28$$)
                  00001528    00000101     rtsv7M4_T_le_v4SPD16_eabi.lib : ctype.c.obj (.const:.string:_ctypes_)
                  00001629    00000100     crc.obj (.const:.string:crc_table$14)
                  00001729    000000f8     mac_cfg.obj (.const:macPibTbl)
                  00001821    00000002     drivers_cc26x2.a : UART2CC26X2.oem4f (.const:.string:stopBits)
                  00001823    00000001     ti_drivers_config.obj (.const:TemperatureCC26X2_config)
                  00001824    000000cc     maclib_secure_cc26x2_2_4g_tirtos7.a : lmac_rom_init.obj (.const:LMAC_ROM_Flash_JT)
                  000018f0    000000b8     ti_radio_config.obj (.const:$O2$$)
                  000019a8    00000088     mac_cfg.obj (.const:macPibDefaults)
                  00001a30    00000084     drivers_cc26x2.a : Random.oem4f (.const:$P$T0$1)
                  00001ab4    00000084     ti_sysbios_config.obj (.const)
                  00001b38    00000078     cllc.obj (.const:$O7$$)
                  00001bb0    00000072     maclib_secure_cc26x2_2_4g_tirtos7.a : hmac_global.obj (.const:macAssociatingSt)
                  00001c22    00000072                                         : hmac_global.obj (.const:macIdleSt)
                  00001c94    00000072                                         : hmac_global.obj (.const:macPollingSt)
                  00001d06    00000072                                         : hmac_global.obj (.const:macScanningSt)
                  00001d78    00000072                                         : hmac_global.obj (.const:macStartingSt)
                  00001dea    00000002     cllc.obj (.const:keyUsageList$5)
                  00001dec    0000006c     maclib_secure_cc26x2_2_4g_tirtos7.a : icall_osal_rom_init.obj (.const:ICALL_OSAL_ROM_Flash_JT)
                  00001e58    0000006c     mac_user_config.obj (.const:macRfDriverTable)
                  00001ec4    00000058     mac_cfg.obj (.const:macSecurityPibTbl)
                  00001f1c    00000058     ti_drivers_config.obj (.const:uart2CC26X2HWAttrs)
                  00001f74    00000054     drivers_cc26x2.a : PowerCC26X2.oem4f (.const:resourceDB)
                  00001fc8    00000040     mac_user_config.obj (.const:macCryptoDriverTable)
                  00002008    00000040     maclib_secure_cc26x2_2_4g_tirtos7.a : hmac_global.obj (.const:macTimerRolloverValue)
                  00002048    00000038                                         : hmac_global.obj (.const:macCmdIncludeFHIe)
                  00002080    00000028     drivers_cc26x2.a : NVSCC26XX.oem4f (.const:NVSCC26XX_fxnTable)
                  000020a8    00000024     cui.obj (.const:$O9$$)
                  000020cc    00000024     mac_user_config.obj (.const:$P$T0$1$13)
                  000020f0    00000024     drivers_cc26x2.a : UART2.oem4f (.const:UART2_defaultParams)
                  00002114    00000020     ti_sysbios_config.obj (.const:.string)
                  00002134    00000020     rf_multiMode_cc26x2.a : RFCC26X2_multiMode.c.cc26x2.ccs.o (.const:RF_defaultParams)
                  00002154    00000020     cllc.obj (.const:keyDeviceList$5)
                  00002174    00000018     csf.obj (.const:$O5$$)
                  0000218c    00000018     drivers_cc26x2.a : PWM.oem4f (.const:PWM_defaultParams)
                  000021a4    00000018     maclib_secure_cc26x2_2_4g_tirtos7.a : hmac_global.obj (.const:macSendMsgBufSize)
                  000021bc    00000015     ti_drivers_config.obj (.const)
                  000021d1    00000001     ti_drivers_config.obj (.const:aesccmCC26XXHWAttrs)
                  000021d2    00000002     --HOLE-- [fill = 0]
                  000021d4    00000014     drivers_cc26x2.a : Button.oem4f (.const:Button_defaultParams)
                  000021e8    00000014     ti_drivers_config.obj (.const:PowerCC26X2_config)
                  000021fc    00000014     drivers_cc26x2.a : TRNG.oem4f (.const:TRNG_defaultParams)
                  00002210    00000013     macTask.obj (.const:.string:msacbackSizeTable)
                  00002223    00000001     --HOLE-- [fill = 0]
                  00002224    00000010     drivers_cc26x2.a : AESCCM.oem4f (.const:AESCCM_defaultParams)
                  00002234    00000010     ti_drivers_config.obj (.const:ButtonHWAttrs)
                  00002244    00000010     ti_drivers_config.obj (.const:Button_config)
                  00002254    00000010     ti_drivers_config.obj (.const:GPIO_config)
                  00002264    00000010     ti_drivers_config.obj (.const:LED_config)
                  00002274    00000010     maclib_secure_cc26x2_2_4g_tirtos7.a : hmac_global.obj (.const:macIEEEPhyTable)
                  00002284    0000000e                                         : hmac_global.obj (.const:.string:macCmdBufSize)
                  00002292    0000000e                                         : hmac_global.obj (.const:.string:macTxFrameFailed)
                  000022a0    0000000e                                         : hmac_global.obj (.const:.string:macTxFrameSuccess)
                  000022ae    00000002     --HOLE-- [fill = 0]
                  000022b0    0000000c     drivers_cc26x2.a : Random.oem4f (.const:$P$T1$2)
                  000022bc    0000000c     maclib_secure_cc26x2_2_4g_tirtos7.a : hmac_global.obj (.const:.string:macCbackEventTbl)
                  000022c8    0000000c                                         : hmac_global.obj (.const:.string:macSendMsgDataSize)
                  000022d4    0000000c     ti_drivers_config.obj (.const:NVS_config)
                  000022e0    0000000c     ti_drivers_config.obj (.const:RFCC26XX_hwAttrs)
                  000022ec    00000009     maclib_secure_cc26x2_2_4g_tirtos7.a : hmac_global.obj (.const:.string:macCmdLen)
                  000022f5    00000003     --HOLE-- [fill = 0]
                  000022f8    00000008                                         : mac_rx.obj (.const:$O21$$)
                  00002300    00000008     driverlib.lib : aux_sysif.obj (.const:$O29$$)
                  00002308    00000008     main.obj (.const:.string:dummyExtAddr$7)
                  00002310    00000008     maclib_secure_cc26x2_2_4g_tirtos7.a : hmac_global.obj (.const:.string:macAuthTagLen)
                  00002318    00000008     ti_drivers_config.obj (.const:AESCCM_config)
                  00002320    00000008     drivers_cc26x2.a : LED.oem4f (.const:LED_defaultParams)
                  00002328    00000008     ti_drivers_config.obj (.const:UART2_config)
                  00002330    00000008     ti_drivers_config.obj (.const:UDMACC26XX_config)
                  00002338    00000008     ti_drivers_config.obj (.const:nvsCC26XXHWAttrs)
                  00002340    00000008     ti_drivers_config.obj (.const:udmaCC26XXHWAttrs)
                  00002348    00000005     drivers_cc26x2.a : UART2CC26X2.oem4f (.const:.string:parityType)
                  0000234d    00000005                      : UART2CC26X2.oem4f (.const:.string:rxFifoThreshold)
                  00002352    00000005                      : UART2CC26X2.oem4f (.const:.string:txFifoThreshold)
                  00002357    00000004                      : UART2CC26X2.oem4f (.const:.string:dataLength)
                  0000235b    00000004     maclib_secure_cc26x2_2_4g_tirtos7.a : hmac_global.obj (.const:.string:macKeySourceLen)
                  0000235f    00000004     ti_drivers_config.obj (.const:LEDHWAttrs)
                  00002363    00000001     --HOLE-- [fill = 0]
                  00002364    00000004     drivers_cc26x2.a : NVS.oem4f (.const:NVS_defaultParams)
                  00002368    00000004     ti_sysbios_config.obj (.const:ti_sysbios_knl_Idle_funcList)

.cinit     0    00016ed8    00000330     
                  00016ed8    000002d5     (.cinit..data.load) [load image, compression = lzss]
                  000171ad    00000003     --HOLE-- [fill = 0]
                  000171b0    0000000c     (__TI_handler_table)
                  000171bc    00000004     --HOLE-- [fill = 0]
                  000171c0    00000008     (.cinit..TI.bound:dmaUart1RxControlTableEntry.load) [load image, compression = zero_init]
                  000171c8    00000008     (.cinit..TI.bound:dmaUart1TxControlTableEntry.load) [load image, compression = zero_init]
                  000171d0    00000008     (.cinit..bss.load) [load image, compression = zero_init]
                  000171d8    00000008     (.cinit..data:RAM_MAC_BASE_ADDR.load) [load image, compression = zero_init]
                  000171e0    00000028     (__TI_cinit_table)

.init_array 
*          0    00000000    00000000     UNINITIALIZED

.text.1    0    0000003c    00000004     
                  0000003c    00000004     ti_sysbios_config.obj (.text:CPUwfi)

.text.2    0    0000236c    00014b60     
                  0000236c    00000412     csf.obj (.text:Csf_processEvents)
                  0000277e    00000002     ti_sysbios_config.obj (.text:BIOS_nullFunc)
                  00002780    000003a0     csf.obj (.text:Csf_init)
                  00002b20    00000378     api_mac.obj (.text:processIncomingICallMsg$8)
                  00002e98    00000378     collector.obj (.text:processSensorData$3)
                  00003210    00000323     ti_sysbios_config.obj (.text:ti_sysbios_runtime_System_doPrint)
                  00003533    00000001     --HOLE-- [fill = 0]
                  00003534    000002cc     nvocmp.obj (.text:NVOCMP_compactPage$15)
                  00003800    00000298     rf_multiMode_cc26x2.a : RFCC26X2_multiMode.c.cc26x2.ccs.o (.text:RF_open)
                  00003a98    00000278     drivers_cc26x2.a : UART2.oem4f (.text:UART2_writeTimeout)
                  00003d10    00000274     nvocmp.obj (.text:NVOCMP_compact$15)
                  00003f84    0000025c     maclib_secure_cc26x2_2_4g_tirtos7.a : mac_pwr.obj (.text:macPwrVote)
                  000041e0    0000024c                                         : mac_radio_tx.obj (.text:macRadioCsmaTxCbIeee$29)
                  0000442c    00000244     collector.obj (.text:dataIndCB$3)
                  00004670    00000230     csf.obj (.text:setChMaskAction$4)
                  000048a0    0000021c     maclib_secure_cc26x2_2_4g_tirtos7.a : mac.obj (.text:macSendReceiveCmdIeee)
                  00004abc    00000210     rf_multiMode_cc26x2.a : RFCC26X2_multiMode.c.cc26x2.ccs.o (.text:RF_scheduleCmd)
                  00004ccc    00000208     nvocmp.obj (.text:NVOCMP_addItem$15)
                  00004ed4    00000200     drivers_cc26x2.a : UART2.oem4f (.text:UART2_readTimeout)
                  000050d4    000001f4                      : UART2CC26X2.oem4f (.text:UART2CC26X2_hwiIntFxn)
                  000052c8    000001f0     maclib_secure_cc26x2_2_4g_tirtos7.a : mac_tx.obj (.text:macTxFrame)
                  000054b8    000001e0                                         : mac_hl_patch.obj (.text:macWrapperAddKeyInitFCtr)
                  00005698    000001dc     rf_multiMode_cc26x2.a : RFCC26X2_multiMode.c.cc26x2.ccs.o (.text:RF_dispatchNextCmd)
                  00005874    000001dc     drivers_cc26x2.a : UART2CC26X2.oem4f (.text:UART2_open)
                  00005a50    000001c8     csf.obj (.text:setNwkKeyAction$4)
                  00005c18    000001c0     mac_user_config.obj (.text:rfSelect)
                  00005dd8    000001b0     maclib_secure_cc26x2_2_4g_tirtos7.a : mac_rx.obj (.text:rxPayloadIsr$22)
                  00005f88    000001ac                                         : mac_hl_patch.obj (.text:macRxBeaconCritical)
                  00006134    000001a4                                         : mac_hl_patch.obj (.text:macWrapperDeleteKeyAndAssociatedDevices)
                  000062d8    0000019c                                         : mac_hl_patch.obj (.text:macIncomingFrameSecurityMaterialRetrieval)
                  00006474    00000198     drivers_cc26x2.a : PowerCC26X2.oem4f (.text:Power_sleep)
                  0000660c    00000198     maclib_secure_cc26x2_2_4g_tirtos7.a : mac_hl_patch.obj (.text:macWrapperDeleteDevice)
                  000067a4    00000190     drivers_cc26x2.a : PowerCC26X2_calibrateRCOSC.oem4f (.text:calibrateRcoscHf1)
                  00006934    0000018c     maclib_secure_cc26x2_2_4g_tirtos7.a : mac_hl_patch.obj (.text:macIncomingFrameSecurity)
                  00006ac0    0000018c     drivers_cc26x2.a : PowerCC26X2_calibrateRCOSC.oem4f (.text:runCalibrateFsm)
                  00006c4c    00000188     maclib_secure_cc26x2_2_4g_tirtos7.a : mac_radio_tx.obj (.text:macRadioTxGoIeee$29)
                  00006dd4    00000180     csf.obj (.text:setPanIdAction$4)
                  00006f54    00000174     maclib_secure_cc26x2_2_4g_tirtos7.a : mac_tx.obj (.text:txCsmaDelay)
                  000070c8    0000016e     drivers_cc26x2.a : Button.oem4f (.text:Button_clockTimeoutHandler)
                  00007236    00000002     ti_drivers_config.obj (.text:Board_initHook)
                  00007238    0000016c     drivers_cc26x2.a : PowerCC26X2.oem4f (.text:Power_init)
                  000073a4    0000016c     driverlib.lib : osc.obj (.text:findHposcCoefficients$43)
                  00007510    00000164     collector.obj (.text:Collector_init)
                  00007674    00000164     maclib_secure_cc26x2_2_4g_tirtos7.a : mac_hl_patch.obj (.text:macWrapperDeleteAllDevices)
                  000077d8    0000015c                                         : mac_hl_patch.obj (.text:macScanNextChan)
                  00007934    00000158     driverlib.lib : sys_ctrl.obj (.text:NOROM_SysCtrlStandby)
                  00007a8c    00000154     nvocmp.obj (.text:NVOCMP_findItem$15)
                  00007be0    00000154     rf_multiMode_cc26x2.a : RFCC26X2_multiMode.c.cc26x2.ccs.o (.text:RF_radioOpDoneCb)
                  00007d34    00000148     collector.obj (.text:dataCnfCB$3)
                  00007e7c    00000144     rf_multiMode_cc26x2.a : RFCC26X2_multiMode.c.cc26x2.ccs.o (.text:RF_fsmSetupState)
                  00007fc0    00000144     csf.obj (.text:updateCollectorStatusLine$4)
                  00008104    00000140     csf.obj (.text:sensorSelectAction$4)
                  00008244    0000013c     drivers_cc26x2.a : AESCCMCC26XX.oem4f (.text:AESCCM_startOperation)
                  00008380    0000013c     cui.obj (.text:CUI_dispMenu$6)
                  000084bc    00000138     drivers_cc26x2.a : NVSCC26XX.oem4f (.text:NVSCC26XX_write)
                  000085f4    00000138     rf_multiMode_cc26x2.a : RFCC26X2_multiMode.c.cc26x2.ccs.o (.text:RF_abortCmd)
                  0000872c    00000138                           : RFCC26X2_multiMode.c.cc26x2.ccs.o (.text:RF_ratSetupChannel)
                  00008864    00000138     maclib_secure_cc26x2_2_4g_tirtos7.a : mac_hl_patch.obj (.text:macBuildDataFrame)
                  0000899c    0000012c     drivers_cc26x2.a : UART2CC26X2.oem4f (.text:UART2CC26X2_initHw)
                  00008ac8    00000128     ti_sysbios_config.obj (.text:ti_sysbios_family_arm_cc26xx_Timer_construct)
                  00008bf0    00000120     cui.obj (.text:CUI_statusLinePrintf)
                  00008d10    00000120     csf.obj (.text:Csf_deviceUpdate)
                  00008e30    00000120     rf_multiMode_cc26x2.a : RFCC26X2_multiMode.c.cc26x2.ccs.o (.text:RF_close)
                  00008f50    00000120     drivers_cc26x2.a : PowerCC26X2.oem4f (.text:configureXOSCHF)
                  00009070    00000120     collector.obj (.text:generateTrackingRequests$3)
                  00009190    00000118     maclib_secure_cc26x2_2_4g_tirtos7.a : mac.obj (.text:macSetupRATChanCompare)
                  000092a8    00000118     csf.obj (.text:sensorSetReportInterval$4)
                  000093c0    00000114     macTask.obj (.text:MAC_CbackEvent)
                  000094d4    00000114     maclib_secure_cc26x2_2_4g_tirtos7.a : mac_radio.obj (.text:macRadioInitIeee)
                  000095e8    00000110     cui.obj (.text:CUI_init)
                  000096f8    00000110     cui.obj (.text:CUI_menuActionHelp)
                  00009808    00000110     drivers_cc26x2.a : LED.oem4f (.text:LED_open)
                  00009918    00000104     rf_multiMode_cc26x2.a : RFCC26X2_multiMode.c.cc26x2.ccs.o (.text:RF_hwiCpe0Active)
                  00009a1c    00000100     cui.obj (.text:CUI_statusLineResourceRequest)
                  00009b1c    000000fc     driverlib.lib : setup.obj (.text:TrimAfterColdResetWakeupFromShutDown$42)
                  00009c18    000000fc     maclib_secure_cc26x2_2_4g_tirtos7.a : mac_hl_patch.obj (.text:macOutgoingFrameKeyDescRetrieval)
                  00009d14    000000f8     rf_multiMode_cc26x2.a : RFCC26X2_multiMode.c.cc26x2.ccs.o (.text:RF_decodeOverridePointers)
                  00009e0c    000000f8     ti_sysbios_config.obj (.text:ti_sysbios_knl_TaskSupport_buildTaskStack)
                  00009f04    000000f4     sysbios.a : Hwi_asm.obj (.text:ti_sysbios_family_arm_m3_Hwi_dispatch)
                  00009ff8    000000f0     rf_multiMode_cc26x2.a : RFCC26X2_multiMode.c.cc26x2.ccs.o (.text:RF_fsmPowerUpState)
                  0000a0e8    000000ec     nvocmp.obj (.text:NVOCMP_cleanPage$15)
                  0000a1d4    000000e8     drivers_cc26x2.a : GPIOCC26XX.oem4f (.text:GPIO_init)
                  0000a2bc    000000e8                      : UART2CC26X2.oem4f (.text:UART2Support_dmaStartRx)
                  0000a3a4    000000e8     main.obj (.text:main)
                  0000a48c    000000e4     maclib_secure_cc26x2_2_4g_tirtos7.a : mac_hl_patch.obj (.text:macOutgoingFrameSecurity)
                  0000a570    000000e4                                         : mac_hl_patch.obj (.text:macScanRxCoordRealign)
                  0000a654    000000e0     rf_multiMode_cc26x2.a : RFCC26X2_multiMode.c.cc26x2.ccs.o (.text:RF_control)
                  0000a734    000000dc     collector.obj (.text:Collector_sendConfigRequest)
                  0000a810    000000dc     driverlib.lib : aes.obj (.text:NOROM_AESWriteToKeyStore)
                  0000a8ec    000000dc     maclib_secure_cc26x2_2_4g_tirtos7.a : mac_hl_patch.obj (.text:macBuildHeaderIes)
                  0000a9c8    000000d8     rf_multiMode_cc26x2.a : RFCC26X2_multiMode.c.cc26x2.ccs.o (.text:RF_pendCmd)
                  0000aaa0    000000d8     maclib_secure_cc26x2_2_4g_tirtos7.a : mac_hl_patch.obj (.text:macCcmStarTransform)
                  0000ab78    000000d8                                         : mac_hl_patch.obj (.text:macEdScanISR)
                  0000ac50    000000d8     collector.obj (.text:sendMsg$3)
                  0000ad28    000000d8     maclib_secure_cc26x2_2_4g_tirtos7.a : mac_tx.obj (.text:txCsmaPrep$25)
                  0000ae00    000000d4                                         : mac_hl_patch.obj (.text:MAC_MlmeScanReq)
                  0000aed4    000000d4     ti_sysbios_config.obj (.text:ti_sysbios_knl_Task_Instance_init)
                  0000afa8    000000d2     rf_multiMode_cc26x2.a : RFCC26X2_multiMode.c.cc26x2.ccs.o (.text:RF_updatePaConfiguration)
                  0000b07a    00000002                           : rfc.c.cc26x2.ccs.o (.text:NOROM_RFCCpePatchReset)
                  0000b07c    000000d0     maclib_secure_cc26x2_2_4g_tirtos7.a : mac_low_level.obj (.text:macLowLevelBufferInit)
                  0000b14c    000000cc     drivers_cc26x2.a : Button.oem4f (.text:Button_open)
                  0000b218    000000cc     rf_multiMode_cc26x2.a : RFCC26X2_multiMode.c.cc26x2.ccs.o (.text:RF_swiHw)
                  0000b2e4    000000cc     maclib_secure_cc26x2_2_4g_tirtos7.a : mac_timer.obj (.text:macSymbolTimerTriggerCallback)
                  0000b3b0    000000c8     driverlib.lib : setup.obj (.text:NOROM_SetupTrimDevice)
                  0000b478    000000c4     cllc.obj (.text:Cllc_removeDevice)
                  0000b53c    000000c4     maclib_secure_cc26x2_2_4g_tirtos7.a : mac_autopend.obj (.text:MAC_SrcMatchAddEntry)
                  0000b600    000000c4                                         : mac_hl_patch.obj (.text:macApiStartReq)
                  0000b6c4    000000c4     ti_sysbios_config.obj (.text:ti_sysbios_knl_Semaphore_pend)
                  0000b788    000000c0     maclib_secure_cc26x2_2_4g_tirtos7.a : mac_pwr.obj (.text:MAC_PwrOffReq)
                  0000b848    000000c0     nvocmp.obj (.text:NVOCMP_erase$15)
                  0000b908    000000c0     drivers_cc26x2.a : PowerCC26X2.oem4f (.text:Power_releaseDependency)
                  0000b9c8    000000c0                      : TRNGCC26XX.oem4f (.text:TRNG_getRandom)
                  0000ba88    000000c0     maclib_secure_cc26x2_2_4g_tirtos7.a : mac_rx.obj (.text:rxPostRxUpdates$22)
                  0000bb48    000000bc     rf_multiMode_cc26x2.a : RFCC26X2_multiMode.c.cc26x2.ccs.o (.text:RF_initRadioSetup)
                  0000bc04    000000bc     maclib_secure_cc26x2_2_4g_tirtos7.a : mac_hl_patch.obj (.text:macAutoPoll)
                  0000bcc0    000000bc                                         : mac.obj (.text:macGetRFCmdDuration)
                  0000bd7c    000000b8     drivers_cc26x2.a : PowerCC26X2.oem4f (.text:Power_setDependency)
                  0000be34    000000b8     maclib_secure_cc26x2_2_4g_tirtos7.a : mac_hl_patch.obj (.text:macMgmtReset)
                  0000beec    000000b6     driverlib.lib : osc.obj (.text:multiplyColumns$43)
                  0000bfa2    00000002     rf_multiMode_cc26x2.a : RFCC26X2_multiMode.c.cc26x2.ccs.o (.text:RF_defaultCallback)
                  0000bfa4    000000b4     ti_sysbios_config.obj (.text:PowerCC26XX_standbyPolicy)
                  0000c058    000000b4     cllc.obj (.text:assocIndCb$5)
                  0000c10c    000000b0     maclib_secure_cc26x2_2_4g_tirtos7.a : mac_hl_patch.obj (.text:macDataTxComplete)
                  0000c1bc    000000b0                                         : mac_radio.obj (.text:macRadioUpdateTxPower)
                  0000c26c    000000b0     ti_sysbios_config.obj (.text:ti_sysbios_knl_Task_setPri)
                  0000c31c    000000ac     nvocmp.obj (.text:NVOCMP_readContItemApi$15)
                  0000c3c8    000000ac     drivers_cc26x2.a : UART2CC26X2.oem4f (.text:UART2Support_dmaStartTx)
                  0000c474    000000ac     maclib_secure_cc26x2_2_4g_tirtos7.a : mac_hl_patch.obj (.text:macApiBeaconStartReq)
                  0000c520    000000ac     api_mac.obj (.text:processBeaconNotifyInd$8)
                  0000c5cc    000000a8     maclib_secure_cc26x2_2_4g_tirtos7.a : mac_hl_patch.obj (.text:macBeaconCheckTxTime)
                  0000c674    000000a8                                         : mac_hl_patch.obj (.text:macTrackTimeoutCallback)
                  0000c71c    000000a8                                         : mac_tx.obj (.text:txComplete)
                  0000c7c4    000000a4     rf_multiMode_cc26x2.a : RFCC26X2_multiMode.c.cc26x2.ccs.o (.text:RF_ratRestartChannels)
                  0000c868    000000a4     driverlib.lib : osc.obj (.text:findHposcPc$43)
                  0000c90c    000000a4     maclib_secure_cc26x2_2_4g_tirtos7.a : mac_hl_patch.obj (.text:macCcmStarInverseTransform)
                  0000c9b0    000000a4                                         : mac.obj (.text:macSetupReceiveCmd)
                  0000ca54    000000a4     ti_sysbios_config.obj (.text:ti_sysbios_knl_Clock_workFuncDynamic)
                  0000caf8    000000a0     nvocmp.obj (.text:NVOCMP_initNvApi$15)
                  0000cb98    000000a0     rf_multiMode_cc26x2.a : RFCC26X2_multiMode.c.cc26x2.ccs.o (.text:RF_cmdDispatchTime)
                  0000cc38    000000a0                           : RFCC26X2_multiMode.c.cc26x2.ccs.o (.text:RF_requestAccess)
                  0000ccd8    000000a0     drivers_cc26x2.a : UART2CC26X2.oem4f (.text:UART2_close)
                  0000cd78    000000a0     maclib_secure_cc26x2_2_4g_tirtos7.a : mac_hl_patch.obj (.text:macBlacklistChecking)
                  0000ce18    000000a0                                         : mac_radio.obj (.text:scheduleNopWakeupCmd)
                  0000ceb8    000000a0     sysbios.a : auto_init.obj (.text)
                  0000cf58    0000009c     cllc.obj (.text:Cllc_init)
                  0000cff4    0000009c     nvocmp.obj (.text:NVOCMP_readHeader$15)
                  0000d090    0000009c     rf_multiMode_cc26x2.a : RFCC26X2_multiMode.c.cc26x2.ccs.o (.text:RF_hposcRfCompensateFxn)
                  0000d12c    0000009c     drivers_cc26x2.a : TRNGCC26XX.oem4f (.text:TRNG_construct)
                  0000d1c8    0000009c     maclib_secure_cc26x2_2_4g_tirtos7.a : mac_radio.obj (.text:macRadioUpdateChannel)
                  0000d264    0000009c                                         : mac_radio.obj (.text:macRadioUpdateChannelRx)
                  0000d300    0000009c                                         : mac_tx.obj (.text:macTxDoneCallback)
                  0000d39c    0000009c     rtsv7M4_T_le_v4SPD16_eabi.lib : memcpy_t2.asm.obj (.text)
                  0000d438    0000009c     ti_sysbios_config.obj (.text:ti_sysbios_knl_Task_Instance_finalize)
                  0000d4d4    00000098     driverlib.lib : osc.obj (.text:NOROM_OSC_HPOSCInitializeFrequencyOffsetParameters)
                  0000d56c    00000098     nvocmp.obj (.text:NVOCMP_updateItemApi$15)
                  0000d604    00000098     rf_multiMode_cc26x2.a : RFCC26X2_multiMode.c.cc26x2.ccs.o (.text:RF_calculateDispatchTime)
                  0000d69c    00000098     drivers_cc26x2.a : TRNGCC26XX.oem4f (.text:TRNGCC26XX_hwiFxn)
                  0000d734    00000098     maclib_secure_cc26x2_2_4g_tirtos7.a : mac_hl_patch.obj (.text:macAutoPendAddSrcMatchTableEntry)
                  0000d7cc    00000096     rtsv7M4_T_le_v4SPD16_eabi.lib : ull_div_t2.asm.obj (.text)
                  0000d862    00000002     drivers_cc26x2.a : UART2CC26X2.oem4f (.text:UART2CC26X2_eventCallback)
                  0000d864    00000094     csf.obj (.text:Csf_updateFrameCounter)
                  0000d8f8    00000094     nvocmp.obj (.text:NVOCMP_getDstPage$15)
                  0000d98c    00000094     maclib_secure_cc26x2_2_4g_tirtos7.a : mac_hl_patch.obj (.text:macIncomingSecurityLevelChecking)
                  0000da20    00000094                                         : mac.obj (.text:macRatCb_A)
                  0000dab4    00000092     driverlib.lib : osc.obj (.text:findDenominator$43)
                  0000db46    00000002     rtsv7M4_T_le_v4SPD16_eabi.lib : _lock.c.obj (.text:_nop)
                  0000db48    00000090     maclib_secure_cc26x2_2_4g_tirtos7.a : mac_hl_patch.obj (.text:MAC_ResumeReq)
                  0000dbd8    00000090     rf_multiMode_cc26x2.a : RFCC26X2_multiMode.c.cc26x2.ccs.o (.text:RF_discardPendCmd)
                  0000dc68    00000090                           : RFCC26X2_multiMode.c.cc26x2.ccs.o (.text:RF_getInfo)
                  0000dcf8    00000090     maclib_secure_cc26x2_2_4g_tirtos7.a : mac_hl_patch.obj (.text:macCcmDecrypt)
                  0000dd88    0000008e     driverlib.lib : osc.obj (.text:findNumerator$43)
                  0000de16    00000002     drivers_cc26x2.a : PowerCC26X2.oem4f (.text:emptyClockFunc)
                  0000de18    0000008c     maclib_osal_tirtos7_cc13x2_26x2.a : osal_port.obj (.text:OsalPort_heapMalloc$39)
                  0000dea4    0000008c     api_mac.obj (.text:copyDataInd$8)
                  0000df30    0000008c     maclib_secure_cc26x2_2_4g_tirtos7.a : mac_hl_patch.obj (.text:macCcmEncrypt)
                  0000dfbc    0000008c                                         : mac_radio_tx.obj (.text:macRadioTxPrepCsmaSlottedIeee)
                  0000e048    0000008c                                         : mac_autopend.obj (.text:macSrcMatchCheckSrcAddr$18)
                  0000e0d4    00000088     csf.obj (.text:Csf_getDeviceItem)
                  0000e15c    00000088     maclib_secure_cc26x2_2_4g_tirtos7.a : mac_autopend.obj (.text:MAC_SrcMatchEnable)
                  0000e1e4    00000088     driverlib.lib : osc.obj (.text:NOROM_OSCHF_AttemptToSwitchToXosc)
                  0000e26c    00000088     nvocmp.obj (.text:NVOCMP_deleteItemApi$15)
                  0000e2f4    00000088     rf_multiMode_cc26x2.a : RFCC26X2_multiMode.c.cc26x2.ccs.o (.text:RF_getTxPower)
                  0000e37c    00000088     drivers_cc26x2.a : PowerCC26X2_calibrateRCOSC.oem4f (.text:calibrateRcoscHf2)
                  0000e404    00000088                      : PowerCC26X2.oem4f (.text:disableLFClockQualifiers)
                  0000e48c    00000088     maclib_secure_cc26x2_2_4g_tirtos7.a : mac_hl_patch.obj (.text:macKeyDescriptorLookup)
                  0000e514    00000088                                         : mac_mcu.obj (.text:macMcuOverflowSetPeriod)
                  0000e59c    00000088                                         : mac_symbol_timer.obj (.text:macSymbolTimerInit)
                  0000e624    00000088     ti_sysbios_config.obj (.text:ti_sysbios_family_arm_m3_Hwi_initNVIC)
                  0000e6ac    00000088     drivers_cc26x2.a : PowerCC26X2_calibrateRCOSC.oem4f (.text:updateSubSecInc)
                  0000e734    00000084     cllc.obj (.text:Cllc_securityInit)
                  0000e7b8    00000084     nvocmp.obj (.text:NVOCMP_createItemApi$15)
                  0000e83c    00000084     rf_multiMode_cc26x2.a : RFCC26X2_multiMode.c.cc26x2.ccs.o (.text:RF_issueRadioFreeCb)
                  0000e8c0    00000084                           : RFCC26X2_multiMode.c.cc26x2.ccs.o (.text:RF_verifyGap)
                  0000e944    00000084     maclib_secure_cc26x2_2_4g_tirtos7.a : mac_radio.obj (.text:macRadioStartScan)
                  0000e9c8    00000084                                         : mac_timer.obj (.text:macTimerUpdateSymbolTimer)
                  0000ea4c    00000084     ti_sysbios_config.obj (.text:ti_sysbios_family_arm_m3_Hwi_Instance_init)
                  0000ead0    00000084     ti_sysbios_config.obj (.text:ti_sysbios_gates_GateMutexPri_enter)
                  0000eb54    00000080     cllc.obj (.text:Cllc_restoreNetwork)
                  0000ebd4    00000080     driverlib.lib : chipinfo.obj (.text:NOROM_ChipInfo_GetChipType)
                  0000ec54    00000080     drivers_cc26x2.a : NVSCC26XX.oem4f (.text:NVSCC26XX_open)
                  0000ecd4    00000080     maclib_osal_tirtos7_cc13x2_26x2.a : osal_port.obj (.text:OsalPort_setTimer)
                  0000ed54    00000080     cllc.obj (.text:beaconNotifyIndCb$5)
                  0000edd4    00000080     maclib_secure_cc26x2_2_4g_tirtos7.a : mac_mcu.obj (.text:macMcuOverflowSetCompare)
                  0000ee54    00000080                                         : mac_radio.obj (.text:macRadioWakeupCb)
                  0000eed4    00000080     cllc.obj (.text:scanCnfCb$5)
                  0000ef54    0000007c     nvocmp.obj (.text:NVOCMP_readItemApi$15)
                  0000efd0    0000007c     rf_multiMode_cc26x2.a : RFCC26X2_multiMode.c.cc26x2.ccs.o (.text:RF_ratFreeChannel)
                  0000f04c    0000007c     cllc.obj (.text:maintainAssocTable$5)
                  0000f0c8    0000007c     maclib_osal_tirtos7_cc13x2_26x2.a : osal_port.obj (.text:osalHeapInitFxn)
                  0000f144    0000007c     ti_sysbios_config.obj (.text:ti_sysbios_knl_Swi_restoreHwi)
                  0000f1c0    0000007a     rtsv7M4_T_le_v4SPD16_eabi.lib : memset_t2.asm.obj (.text)
                  0000f23a    00000002     drivers_cc26x2.a : CryptoResourceCC26XX.oem4f (.text:errorSpin)
                  0000f23c    00000078     nvocmp.obj (.text:NVOCMP_checkItem$15)
                  0000f2b4    00000078     maclib_secure_cc26x2_2_4g_tirtos7.a : mac_timer.obj (.text:macTimerSetRollover)
                  0000f32c    00000078                                         : mac_hl_patch.obj (.text:macTrackStartCallback)
                  0000f3a4    00000078     ti_sysbios_config.obj (.text:ti_sysbios_knl_Clock_walkQueueDynamic)
                  0000f41c    00000078     ti_sysbios_config.obj (.text:ti_sysbios_knl_Task_postInit)
                  0000f494    00000076     drivers_cc26x2.a : UART2CC26X2.oem4f (.text:UART2CC26X2_readCallback)
                  0000f50a    00000002     maclib_secure_cc26x2_2_4g_tirtos7.a : mac_pwr.obj (.text:macApiPwrOnReq)
                  0000f50c    00000074     csf.obj (.text:Csf_getDevice)
                  0000f580    00000074     nvocmp.obj (.text:NVOCMP_writeItemApi$15)
                  0000f5f4    00000074     drivers_cc26x2.a : PowerCC26X2_calibrateRCOSC.oem4f (.text:PowerCC26X2_auxISR)
                  0000f668    00000074     rf_multiMode_cc26x2.a : RFCC26X2_multiMode.c.cc26x2.ccs.o (.text:RF_ratDisableChannel)
                  0000f6dc    00000074                           : RFCC26X2_multiMode.c.cc26x2.ccs.o (.text:RF_yield)
                  0000f750    00000074     ti_sysbios_config.obj (.text:ti_sysbios_knl_Clock_startI)
                  0000f7c4    00000072     rf_multiMode_cc26x2.a : RFCC26X2_multiMode.c.cc26x2.ccs.o (.text:RF_detachOverrides)
                  0000f836    00000002     maclib_secure_cc26x2_2_4g_tirtos7.a : mac_radio.obj (.text:macRadioSetRE)
                  0000f838    00000070     drivers_cc26x2.a : AESCCMCC26XX.oem4f (.text:AESCCM_cleanup)
                  0000f8a8    00000070     rf_multiMode_cc26x2.a : rfc.c.cc26x2.ccs.o (.text:NOROM_RFCAnaDivTxOverride)
                  0000f918    00000070     nvocmp.obj (.text:NVOCMP_eraseNvApi$15)
                  0000f988    00000070     rf_multiMode_cc26x2.a : RFCC26X2_multiMode.c.cc26x2.ccs.o (.text:RF_getCurrentTime)
                  0000f9f8    00000070     drivers_cc26x2.a : Random.oem4f (.text:Random_seedAutomatic)
                  0000fa68    00000070                      : TemperatureCC26X2.oem4f (.text:Temperature_init)
                  0000fad8    00000070     collector.obj (.text:cllcStartedCB$3)
                  0000fb48    00000070     maclib_secure_cc26x2_2_4g_tirtos7.a : mac_radio_tx.obj (.text:macRadioTxBOBoundary)
                  0000fbb8    00000070     ti_sysbios_config.obj (.text:ti_sysbios_knl_Idle_init)
                  0000fc28    0000006e     rf_multiMode_cc26x2.a : RFCC26X2_multiMode.c.cc26x2.ccs.o (.text:RF_attachOverrides)
                  0000fc96    0000006e                           : RFCC26X2_multiMode.c.cc26x2.ccs.o (.text:RF_howToSchedule)
                  0000fd04    0000006e     rtsv7M4_T_le_v4SPD16_eabi.lib : ll_div_t2.asm.obj (.text)
                  0000fd72    00000002     maclib_secure_cc26x2_2_4g_tirtos7.a : mac_hl_patch.obj (.text:macSetDefaultsByPatch)
                  0000fd74    0000006d     ti_sysbios_config.obj (.text:ti_sysbios_runtime_System_formatNum)
                  0000fde1    00000001     --HOLE-- [fill = 0]
                  0000fde2    00000002     rtsv7M4_T_le_v4SPD16_eabi.lib : div0.asm.obj (.text)
                  0000fde4    0000006c     csf.obj (.text:Csf_sendDisassociateMsg)
                  0000fe50    0000006c     drivers_cc26x2.a : GPIOCC26XX.oem4f (.text:GPIO_setConfig)
                  0000febc    0000006c     rf_multiMode_cc26x2.a : RFCC26X2_multiMode.c.cc26x2.ccs.o (.text:RF_dispatchNextEvent)
                  0000ff28    0000006c     drivers_cc26x2.a : UART2CC26X2.oem4f (.text:UART2Support_dmaStopTx)
                  0000ff94    0000006c     maclib_secure_cc26x2_2_4g_tirtos7.a : mac_timer.obj (.text:macTimerRealign)
                  00010000    0000006c                                         : mac_hl_patch.obj (.text:macTrackPeriodCallback)
                  0001006c    0000006c     cllc.obj (.text:orphanIndCb$5)
                  000100d8    0000006c     collector.obj (.text:processIdentifyLedRequest$3)
                  00010144    0000006c     cllc.obj (.text:sendStartReq$5)
                  000101b0    0000006c     ti_sysbios_config.obj (.text:ti_sysbios_gates_GateMutexPri_leave)
                  0001021c    0000006c     ti_sysbios_config.obj (.text:ti_sysbios_knl_Swi_run)
                  00010288    00000068     csf.obj (.text:Csf_getDeviceExtAdd)
                  000102f0    00000068     driverlib.lib : osc.obj (.text:NOROM_OSCHF_SwitchToRcOscTurnOffXosc)
                  00010358    00000068                   : osc.obj (.text:NOROM_OSC_HPOSCRtcCompensate)
                  000103c0    00000068     nvocmp.obj (.text:NVOCMP_getFreeNvApi$15)
                  00010428    00000068     maclib_osal_tirtos7_cc13x2_26x2.a : osal_port.obj (.text:OsalPort_registerTask)
                  00010490    00000068     rf_multiMode_cc26x2.a : RFCC26X2_multiMode.c.cc26x2.ccs.o (.text:RF_hwiHw)
                  000104f8    00000068     rtsv7M4_T_le_v4SPD16_eabi.lib : copy_decompress_lzss.c.obj (.text:decompress:lzss:__TI_decompress_lzss)
                  00010560    00000068     csf.obj (.text:findDeviceListIndex$4)
                  000105c8    00000068     maclib_secure_cc26x2_2_4g_tirtos7.a : mac_radio_tx.obj (.text:macRadioTxPrepCsmaUnslottedIeee)
                  00010630    00000068                                         : mac_rx.obj (.text:macRxHaltCleanup)
                  00010698    00000068                                         : mac_rx_onoff.obj (.text:macRxOn)
                  00010700    00000068     ti_sysbios_config.obj (.text:ti_sysbios_knl_Swi_Instance_init)
                  00010768    00000068     ti_sysbios_config.obj (.text:ti_sysbios_knl_Task_startup)
                  000107d0    00000064     drivers_cc26x2.a : AESCCMCC26XX.oem4f (.text:AESCCM_waitForResult)
                  00010834    00000064                      : Button.oem4f (.text:Button_gpioCallbackFxn)
                  00010898    00000064     nvocmp.obj (.text:NVOCMP_findSignature$15)
                  000108fc    00000064     maclib_osal_tirtos7_cc13x2_26x2.a : osal_port.obj (.text:OsalPort_clearEvent)
                  00010960    00000064                                       : osal_port.obj (.text:OsalPort_pwrmgrTaskState)
                  000109c4    00000064     drivers_cc26x2.a : UART2CC26X2.oem4f (.text:UART2Support_dmaStopRx)
                  00010a28    00000064     csf.obj (.text:getTheFirstDevice$4)
                  00010a8c    00000064     maclib_secure_cc26x2_2_4g_tirtos7.a : mac.obj (.text:macRequestBackoff)
                  00010af0    00000064                                         : mac_timer.obj (.text:macSymbolTimerRolloverCallback)
                  00010b54    00000064                                         : mac_timer.obj (.text:macTimerAddTimer)
                  00010bb8    00000062     rf_multiMode_cc26x2.a : RFCC26X2_multiMode.c.cc26x2.ccs.o (.text:RF_syncCb)
                  00010c1a    00000002     ti_sysbios_config.obj (.text:ti_sysbios_runtime_SysCallback_defaultAbort)
                  00010c1c    00000060     drivers_cc26x2.a : AESCCMCC26XX.oem4f (.text:AESCCM_hwiFxn)
                  00010c7c    00000060                      : CryptoResourceCC26XX.oem4f (.text:CryptoResourceCC26XX_constructRTOSObjects)
                  00010cdc    00000060     rf_multiMode_cc26x2.a : RFCC26X2_multiMode.c.cc26x2.ccs.o (.text:RF_applyRfCorePatch)
                  00010d3c    00000060     drivers_cc26x2.a : TRNGCC26XX.oem4f (.text:TRNGCC26XX_startTrng)
                  00010d9c    00000060     maclib_secure_cc26x2_2_4g_tirtos7.a : mac_radio.obj (.text:macGetRadioTxPowerReg)
                  00010dfc    00000060                                         : mac_timer.obj (.text:macTimerCancel)
                  00010e5c    00000060                                         : mac_timer.obj (.text:macTimerGetNextTimer)
                  00010ebc    00000060     collector.obj (.text:orphanIndCb$3)
                  00010f1c    00000060     collector.obj (.text:processDataRetry$3)
                  00010f7c    00000060     ti_sysbios_config.obj (.text:ti_sysbios_knl_Task_schedule)
                  00010fdc    0000005e     api_mac.obj (.text:convertTxOptions)
                  0001103a    00000002     ti_sysbios_config.obj (.text:ti_sysbios_runtime_SysCallback_defaultExit)
                  0001103c    0000005c     nvocmp.obj (.text:NVOCMP_readItem$15)
                  00011098    0000005c     maclib_osal_tirtos7_cc13x2_26x2.a : osal_port.obj (.text:OsalPort_msgReceive)
                  000110f4    0000005c                                       : osal_port.obj (.text:OsalPort_setEvent)
                  00011150    0000005c     rf_multiMode_cc26x2.a : RFCC26X2_multiMode.c.cc26x2.ccs.o (.text:RF_hwiCpe0PowerFsm)
                  000111ac    0000005c     drivers_cc26x2.a : UART2.oem4f (.text:UART2_readCancel)
                  00011208    0000005c                      : NVSCC26XX.oem4f (.text:doErase)
                  00011264    0000005c     maclib_secure_cc26x2_2_4g_tirtos7.a : mac_radio.obj (.text:macRadioSetChannel)
                  000112c0    0000005c                                         : mac_radio.obj (.text:macRadioSetChannelRx)
                  0001131c    0000005c                                         : mac.obj (.text:macRequestSFDTimeout)
                  00011378    0000005c     collector.obj (.text:sendBroadcastMsg$3)
                  000113d4    0000005c     cllc.obj (.text:sendScanReq$5)
                  00011430    0000005c     ti_sysbios_config.obj (.text:ti_sysbios_family_arm_m3_Hwi_postInit)
                  0001148c    0000005c     ti_sysbios_config.obj (.text:ti_sysbios_knl_Swi_runLoop)
                  000114e8    0000005c     ti_sysbios_config.obj (.text:ti_sysbios_knl_Swi_schedule)
                  00011544    0000005a     drivers_cc26x2.a : UART2.oem4f (.text:UART2_writeCancel)
                  0001159e    00000002     ti_sysbios_config.obj (.text:ti_sysbios_runtime_SysCallback_defaultInit)
                  000115a0    00000058     nvocmp.obj (.text:NVOCMP_getItemLenApi$15)
                  000115f8    00000058     drivers_cc26x2.a : PowerCC26X2_calibrateRCOSC.oem4f (.text:PowerCC26X2_initiateCalibration)
                  00011650    00000058     rf_multiMode_cc26x2.a : RFCC26X2_multiMode.c.cc26x2.ccs.o (.text:RF_TxPowerTable_findValue)
                  000116a8    00000058     drivers_cc26x2.a : TRNGCC26XX.oem4f (.text:TRNG_init)
                  00011700    00000058     maclib_secure_cc26x2_2_4g_tirtos7.a : mac_sleep.obj (.text:macCanSleep)
                  00011758    00000058     sysbios.a : boot.obj (.text)
                  000117b0    00000058               : Hwi_asm_switch.obj (.text:ti_sysbios_family_arm_m3_Hwi_initStacks)
                  00011808    00000058     ti_sysbios_config.obj (.text:ti_sysbios_knl_Semaphore_post)
                  00011860    00000056     ti_drivers_config.obj (.text:Board_sendExtFlashByte)
                  000118b6    00000056     drivers_cc26x2.a : LED.oem4f (.text:LED_startBlinking)
                  0001190c    00000056     rf_multiMode_cc26x2.a : RFCC26X2_multiMode.c.cc26x2.ccs.o (.text:RF_defaultSubmitPolicy)
                  00011962    00000002     ti_sysbios_config.obj (.text:ti_sysbios_runtime_SysCallback_defaultPutch)
                  00011964    00000054     drivers_cc26x2.a : AESCCMCC26XX.oem4f (.text:AESCCM_construct)
                  000119b8    00000054     ti_drivers_config.obj (.text:Board_shutDownExtFlash)
                  00011a0c    00000054     cllc.obj (.text:Cllc_addSecDevice)
                  00011a60    00000054     driverlib.lib : prcm.obj (.text:NOROM_PRCMPowerDomainsAllOff)
                  00011ab4    00000054     nvocmp.obj (.text:NVOCMP_doNVCRC$15)
                  00011b08    00000054     drivers_cc26x2.a : NVSCC26XX.oem4f (.text:NVSCC26XX_init)
                  00011b5c    00000054     rf_multiMode_cc26x2.a : RFCC26X2_multiMode.c.cc26x2.ccs.o (.text:RF_fsmXOSCState)
                  00011bb0    00000054     drivers_cc26x2.a : StructRingBuf.oem4f (.text:StructRingBuf_put)
                  00011c04    00000054     maclib_secure_cc26x2_2_4g_tirtos7.a : mac_hl_patch.obj (.text:macIncomingKeyUsagePolicyChecking)
                  00011c58    00000054     api_mac.obj (.text:processScanCnf$8)
                  00011cac    00000054     csf.obj (.text:sendToggleAndUpdateUser$4)
                  00011d00    00000054     collector.obj (.text:sendTrackingRequest$3)
                  00011d54    00000054     ti_sysbios_config.obj (.text:ti_sysbios_family_arm_m3_Hwi_dispatchC)
                  00011da8    00000054     ti_sysbios_config.obj (.text:ti_sysbios_knl_Clock_init)
                  00011dfc    00000050     drivers_cc26x2.a : GPIOCC26XX.oem4f (.text:GPIO_hwiIntFxn)
                  00011e4c    00000050     nvocmp.obj (.text:NVOCMP_compactNvApi$15)
                  00011e9c    00000050     drivers_cc26x2.a : TRNGCC26XX.oem4f (.text:TRNGCC26XX_waitForResult)
                  00011eec    00000050                      : TemperatureCC26X2.oem4f (.text:Temperature_registerNotifyRange)
                  00011f3c    00000050                      : UART2CC26X2.oem4f (.text:UART2Support_dmaRefreshRx)
                  00011f8c    00000050                      : TemperatureCC26X2.oem4f (.text:degreesToCode)
                  00011fdc    00000050     maclib_secure_cc26x2_2_4g_tirtos7.a : mac_rx_onoff.obj (.text:macRxOffRequest)
                  0001202c    00000050                                         : mac_timer.obj (.text:macTimerStart)
                  0001207c    00000050     ti_sysbios_config.obj (.text:ti_sysbios_family_arm_cc26xx_Timer_dynamicMultiStub)
                  000120cc    00000050     ti_sysbios_config.obj (.text:ti_sysbios_runtime_Memory_alloc)
                  0001211c    00000050     drivers_cc26x2.a : TemperatureCC26X2.oem4f (.text:walkNotifyList)
                  0001216c    0000004c     cui.obj (.text:CUI_updateCursor$6)
                  000121b8    0000004c     cui.obj (.text:CUI_writeString$6)
                  00012204    0000004c     driverlib.lib : prcm.obj (.text:NOROM_PRCMPowerDomainsAllOn)
                  00012250    0000004c     nvocmp.obj (.text:NVOCMP_setItemInactive$15)
                  0001229c    0000004c     maclib_osal_tirtos7_cc13x2_26x2.a : osal_port.obj (.text:OsalPort_msgSend)
                  000122e8    0000004c     rf_multiMode_cc26x2.a : RFCC26X2_multiMode.c.cc26x2.ccs.o (.text:RF_wakeupNotification)
                  00012334    0000004c     drivers_cc26x2.a : StructRingBuf.oem4f (.text:StructRingBuf_get)
                  00012380    0000004c                      : UDMACC26XX.oem4f (.text:UDMACC26XX_open)
                  000123cc    0000004c     rtsv7M4_T_le_v4SPD16_eabi.lib : atoi.c.obj (.text:atoi)
                  00012418    0000004c                                   : cpy_tbl.c.obj (.text:copy_in)
                  00012464    0000004c     maclib_secure_cc26x2_2_4g_tirtos7.a : mac_low_level.obj (.text:macLowLevelYield)
                  000124b0    0000004c     maclib_osal_tirtos7_cc13x2_26x2.a : osal_port.obj (.text:osalHeapGetStatsFxn)
                  000124fc    0000004c     ti_sysbios_config.obj (.text:ti_sysbios_knl_Swi_post)
                  00012548    00000048     csf.obj (.text:Csf_getNumDeviceListEntries)
                  00012590    00000048     rf_multiMode_cc26x2.a : rfc.c.cc26x2.ccs.o (.text:NOROM_RFCSynthPowerDown)
                  000125d8    00000048     nvocmp.obj (.text:NVOCMP_write$15)
                  00012620    00000048     drivers_cc26x2.a : NVS.oem4f (.text:NVS_open)
                  00012668    00000048                      : PowerCC26X2_calibrateRCOSC.oem4f (.text:PowerCC26X2_RCOSC_clockFunc)
                  000126b0    00000048                      : PowerCC26X2.oem4f (.text:PowerCC26XX_switchXOSC_HF)
                  000126f8    00000048     rf_multiMode_cc26x2.a : RFCC26X2_multiMode.c.cc26x2.ccs.o (.text:RF_enableHPOSCTemperatureCompensation)
                  00012740    00000048     drivers_cc26x2.a : NVSCC26XX.oem4f (.text:disableFlashCache)
                  00012788    00000048     csf.obj (.text:formNwkAndUpdateUser$4)
                  000127d0    00000048     maclib_secure_cc26x2_2_4g_tirtos7.a : mac_radio.obj (.text:macRadioNeedAdjustPower)
                  00012818    00000048                                         : mac_timer.obj (.text:macTimerUpdActive)
                  00012860    00000048     drivers_cc26x2.a : PowerCC26X2.oem4f (.text:switchXOSCHF)
                  000128a8    00000048     csf.obj (.text:uintToString$4)
                  000128f0    00000046     drivers_cc26x2.a : RingBuf.oem4f (.text:RingBuf_put)
                  00012936    00000046     ti_sysbios_config.obj (.text:SwiP_construct)
                  0001297c    00000046     maclib_secure_cc26x2_2_4g_tirtos7.a : mac_hl_patch.obj (.text:macDeviceDescriptorLookup)
                  000129c2    00000002     ti_sysbios_config.obj (.text:ti_sysbios_runtime_System_abortSpin)
                  000129c4    00000046     ti_sysbios_config.obj (.text:ti_sysbios_runtime_Error_print)
                  00012a0a    00000002     ti_sysbios_config.obj (.text:ti_sysbios_runtime_System_exitSpin)
                  00012a0c    00000044     ti_sysbios_config.obj (.text:BIOS_startFunc)
                  00012a50    00000044     cllc.obj (.text:Cllc_sendDisassociationRequest)
                  00012a94    00000044     maclib_secure_cc26x2_2_4g_tirtos7.a : mac_timer.obj (.text:MAC_PwrNextTimeout)
                  00012ad8    00000044     driverlib.lib : chipinfo.obj (.text:NOROM_ChipInfo_GetHwRevision)
                  00012b1c    00000044     drivers_cc26x2.a : NVSCC26XX.oem4f (.text:NVSCC26XX_read)
                  00012b60    00000044                      : PWM.oem4f (.text:PWM_init)
                  00012ba4    00000044     rf_multiMode_cc26x2.a : RFCC26X2_multiMode.c.cc26x2.ccs.o (.text:RF_updateHpOscOverride)
                  00012be8    00000044     drivers_cc26x2.a : UART2CC26X2.oem4f (.text:UART2CC26X2_initIO)
                  00012c2c    00000044     maclib_secure_cc26x2_2_4g_tirtos7.a : mac_rx_onoff.obj (.text:macRxDisable)
                  00012c70    00000044                                         : mac_tx.obj (.text:macTxTimestampCallback)
                  00012cb4    00000044     ti_sysbios_config.obj (.text:ti_sysbios_family_arm_m3_Hwi_disableInterrupt)
                  00012cf8    00000044     ti_sysbios_config.obj (.text:ti_sysbios_family_arm_m3_Hwi_enableInterrupt)
                  00012d3c    00000044     ti_sysbios_config.obj (.text:ti_sysbios_family_arm_m3_Hwi_getStackInfo)
                  00012d80    00000042     api_mac.obj (.text:copyMacPanDescToApiMacPanDesc$8)
                  00012dc2    00000002     --HOLE-- [fill = 0]
                  00012dc4    00000040     csf.obj (.text:Csf_getNetworkInformation)
                  00012e04    00000040     driverlib.lib : osc.obj (.text:NOROM_OSC_HPOSCRelativeFrequencyOffsetGet)
                  00012e44    00000040     maclib_osal_tirtos7_cc13x2_26x2.a : osal_port.obj (.text:OsalPort_heapFree$39)
                  00012e84    00000040     drivers_cc26x2.a : PWM.oem4f (.text:PWM_open)
                  00012ec4    00000040                      : PowerCC26X2.oem4f (.text:PowerCC26XX_isStableXOSC_HF)
                  00012f04    00000040     rf_multiMode_cc26x2.a : RFCC26X2_multiMode.c.cc26x2.ccs.o (.text:RF_updatePowerupDuration)
                  00012f44    00000040     drivers_cc26x2.a : Random.oem4f (.text:Random_getNumber)
                  00012f84    00000040                      : TRNGCC26XX.oem4f (.text:TRNGCC26XX_copyToClient)
                  00012fc4    00000040                      : UART2.oem4f (.text:UART2_readFull)
                  00013004    00000040     maclib_osal_tirtos7_cc13x2_26x2.a : util_timer.obj (.text:UtilTimer_construct)
                  00013044    00000040     collector.obj (.text:cllcStateChangedCB$3)
                  00013084    00000040     maclib_secure_cc26x2_2_4g_tirtos7.a : mac.obj (.text:macRatCb_B)
                  000130c4    00000040                                         : mac_autopend.obj (.text:macSrcMatchSetEnableBit$18)
                  00013104    00000040                                         : mac_symbol_timer.obj (.text:macSymbolTimerRealignIeee)
                  00013144    00000040                                         : mac_symbol_timer.obj (.text:macSymbolTimerSetTrigger)
                  00013184    00000040     rtsv7M4_T_le_v4SPD16_eabi.lib : u_divt2.asm.obj (.text)
                  000131c4    00000040     drivers_cc26x2.a : TemperatureCC26X2.oem4f (.text:setNextThresholds)
                  00013204    00000040     ti_sysbios_config.obj (.text:ti_sysbios_family_arm_cc26xx_Timer_setThreshold)
                  00013244    00000040     ti_sysbios_config.obj (.text:ti_sysbios_family_arm_cc26xx_Timer_start)
                  00013284    00000040     ti_sysbios_config.obj (.text:ti_sysbios_knl_Task_blockI)
                  000132c4    0000003e     drivers_cc26x2.a : CryptoUtils.oem4f (.text:CryptoUtils_buffersMatch)
                  00013302    0000003e                      : LED.oem4f (.text:LED_setBrightnessLevel)
                  00013340    0000003e     maclib_osal_tirtos7_cc13x2_26x2.a : osal_port.obj (.text:OsalPort_msgEnqueueMax)
                  0001337e    0000003e     drivers_cc26x2.a : RingBuf.oem4f (.text:RingBuf_putAdvance)
                  000133bc    0000003e                      : TRNGCC26XX.oem4f (.text:TRNGCC26XX_serviceJob)
                  000133fa    0000003e                      : LED.oem4f (.text:clockTimeoutHandler)
                  00013438    0000003c     driverlib.lib : osc.obj (.text:InternCapArrayAdjustWithBaseline7001F$43)
                  00013474    0000003c     drivers_cc26x2.a : LED.oem4f (.text:LED_setOff)
                  000134b0    0000003c     maclib_secure_cc26x2_2_4g_tirtos7.a : mac_pwr.obj (.text:MAC_PwrOnReq)
                  000134ec    0000003c     nvocmp.obj (.text:NVOCMP_disableCache$15)
                  00013528    0000003c     rf_multiMode_cc26x2.a : RFCC26X2_multiMode.c.cc26x2.ccs.o (.text:RF_cmdGet)
                  00013564    0000003c                           : RFCC26X2_multiMode.c.cc26x2.ccs.o (.text:RF_cmdStoreEvents)
                  000135a0    0000003c     drivers_cc26x2.a : UART2CC26X2.oem4f (.text:UART2CC26X2_finalizeIO)
                  000135dc    0000003c                      : NVSCC26XX.oem4f (.text:checkEraseRange)
                  00013618    0000003c     collector.obj (.text:cllcDeviceJoiningCB$3)
                  00013654    0000003c     maclib_secure_cc26x2_2_4g_tirtos7.a : mac_radio.obj (.text:macRadioStopScan)
                  00013690    0000003c                                         : mac_timer.obj (.text:macTimerRecalcUnaligned)
                  000136cc    0000003c                                         : mac_tx.obj (.text:macTxDecrypt)
                  00013708    0000003c                                         : mac_tx.obj (.text:macTxUpdateIE)
                  00013744    0000003c     ti_sysbios_config.obj (.text:ti_sysbios_family_arm_m3_Hwi_construct2)
                  00013780    0000003c     ti_sysbios_config.obj (.text:ti_sysbios_heaps_HeapCallback_construct)
                  000137bc    0000003c     ti_sysbios_config.obj (.text:ti_sysbios_knl_Task_exit)
                  000137f8    00000038     cllc.obj (.text:Cllc_setJoinPermit)
                  00013830    00000038     ti_sysbios_config.obj (.text:ClockP_create)
                  00013868    00000038     collector.obj (.text:Collector_sendDeviceTypeRequest)
                  000138a0    00000038     collector.obj (.text:Collector_sendToggleLedRequest)
                  000138d8    00000038     ti_sysbios_config.obj (.text:HwiP_construct)
                  00013910    00000038     nvocmp.obj (.text:NVOCMP_findPage$15)
                  00013948    00000038     drivers_cc26x2.a : PowerCC26X2.oem4f (.text:PowerCC26X2_enableHposcRtcCompensation)
                  00013980    00000038     rf_multiMode_cc26x2.a : RFCC26X2_multiMode.c.cc26x2.ccs.o (.text:RF_checkCmdFsError)
                  000139b8    00000038     drivers_cc26x2.a : UART2CC26X2.oem4f (.text:UART2Support_sendData)
                  000139f0    00000038                      : UART2.oem4f (.text:UART2_rxEnable)
                  00013a28    00000038     collector.obj (.text:findDevice$3)
                  00013a60    00000038     maclib_secure_cc26x2_2_4g_tirtos7.a : mac_timer.obj (.text:macTimerAligned)
                  00013a98    00000038                                         : mac_timer.obj (.text:macTimerInit)
                  00013ad0    00000038                                         : mac_tx.obj (.text:macTxFrameRetransmit)
                  00013b08    00000038     drivers_cc26x2.a : PowerCC26X2.oem4f (.text:notify)
                  00013b40    00000038                      : TemperatureCC26X2.oem4f (.text:temperatureHwiFxn)
                  00013b78    00000038     ti_sysbios_config.obj (.text:ti_sysbios_family_arm_m3_Hwi_init)
                  00013bb0    00000038     ti_sysbios_config.obj (.text:ti_sysbios_knl_Swi_restore)
                  00013be8    00000038     ti_sysbios_config.obj (.text:ti_sysbios_knl_Task_getObjectCheckValue)
                  00013c20    00000038     ti_sysbios_config.obj (.text:ti_sysbios_knl_Task_processVitalTaskFlag)
                  00013c58    00000038     ti_sysbios_config.obj (.text:ti_sysbios_runtime_Startup_exec)
                  00013c90    00000036     api_mac.obj (.text:ApiMac_convertCapabilityInfo)
                  00013cc6    00000036     drivers_cc26x2.a : LED.oem4f (.text:LED_setOn)
                  00013cfc    00000036                      : UART2.oem4f (.text:UART2_rxDisable)
                  00013d32    00000036                      : UDMACC26XX.oem4f (.text:UDMACC26XX_close)
                  00013d68    00000034     ti_sysbios_config.obj (.text:ClockP_construct)
                  00013d9c    00000034     csf.obj (.text:Csf_setTrackingClock)
                  00013dd0    00000034     driverlib.lib : aes.obj (.text:NOROM_AESStartDMAOperation)
                  00013e04    00000034                   : sys_ctrl.obj (.text:NOROM_SysCtrlIdle)
                  00013e38    00000034     nvocmp.obj (.text:NVOCMP_verifyCRC$15)
                  00013e6c    00000034     rf_multiMode_cc26x2.a : RFCC26X2_multiMode.c.cc26x2.ccs.o (.text:RF_powerConstraintRelease)
                  00013ea0    00000034                           : RFCC26X2_multiMode.c.cc26x2.ccs.o (.text:RF_runDirectImmediateCmd)
                  00013ed4    00000034     drivers_cc26x2.a : RingBuf.oem4f (.text:RingBuf_getConsume)
                  00013f08    00000034                      : RingBuf.oem4f (.text:RingBuf_putPointer)
                  00013f3c    00000034     maclib_secure_cc26x2_2_4g_tirtos7.a : mac_hl_patch.obj (.text:macCheckPhyRate)
                  00013f70    00000034                                         : mac_low_level.obj (.text:macLowLevelDiags)
                  00013fa4    00000034                                         : mac.obj (.text:macRatDisableChannelB)
                  00013fd8    00000034                                         : mac_rx_onoff.obj (.text:macRxOff)
                  0001400c    00000034                                         : mac.obj (.text:macStopCmd)
                  00014040    00000034                                         : mac_symbol_timer.obj (.text:macSymbolTimerCount)
                  00014074    00000034                                         : mac_tx.obj (.text:macTxAckNotReceivedCallback)
                  000140a8    00000034     csf.obj (.text:saveNumDeviceListEntries$4)
                  000140dc    00000034     rtsv7M4_T_le_v4SPD16_eabi.lib : strncpy.c.obj (.text:strncpy)
                  00014110    00000034     ti_sysbios_config.obj (.text:ti_sysbios_family_arm_m3_Hwi_Instance_finalize)
                  00014144    00000034     ti_sysbios_config.obj (.text:ti_sysbios_knl_Task_unblockI)
                  00014178    00000034     ti_sysbios_config.obj (.text:ti_sysbios_runtime_Error_raiseX)
                  000141ac    00000034     ti_sysbios_config.obj (.text:ti_sysbios_runtime_System_atexit)
                  000141e0    00000034     ti_sysbios_config.obj (.text:ti_sysbios_runtime_System_processAtExit)
                  00014214    00000034     drivers_cc26x2.a : TemperatureCC26X2.oem4f (.text:updateThresholds)
                  00014248    00000032     maclib_osal_tirtos7_cc13x2_26x2.a : osal_port.obj (.text:OsalPort_msgExtract)
                  0001427a    00000032     ti_sysbios_config.obj (.text:ti_sysbios_family_arm_cc26xx_Timer_setNextTick)
                  000142ac    00000032     ti_sysbios_config.obj (.text:ti_sysbios_gates_GateMutexPri_insertPri)
                  000142de    00000002     --HOLE-- [fill = 0]
                  000142e0    00000030     ti_sysbios_config.obj (.text:BIOS_atExitFunc)
                  00014310    00000030     ti_drivers_config.obj (.text:Board_wakeUpExtFlash)
                  00014340    00000030     cllc.obj (.text:Cllc_getFormingPanId)
                  00014370    00000030     csf.obj (.text:Csf_setConfigClock)
                  000143a0    00000030     nvocmp.obj (.text:NVOCMP_changePageState$15)
                  000143d0    00000030     drivers_cc26x2.a : NVSCC26XX.oem4f (.text:NVSCC26XX_erase)
                  00014400    00000030                      : PowerCC26X2.oem4f (.text:Power_releaseConstraint)
                  00014430    00000030                      : PowerCC26X2.oem4f (.text:Power_setConstraint)
                  00014460    00000030     ti_sysbios_config.obj (.text:SemaphoreP_construct)
                  00014490    00000030     driverlib.lib : osc.obj (.text:SpecialCapArrayWorkaroundEnabledAndNeeded$43)
                  000144c0    00000030     drivers_cc26x2.a : TRNGCC26XX.oem4f (.text:TRNGCC26XX_fillEntropyPool)
                  000144f0    00000030                      : TRNGCC26XX.oem4f (.text:TRNG_generateKey)
                  00014520    00000030                      : TemperatureCC26X2.oem4f (.text:Temperature_unregisterNotify)
                  00014550    00000030     collector.obj (.text:getMsduHandle$3)
                  00014580    00000030     maclib_secure_cc26x2_2_4g_tirtos7.a : mac_radio.obj (.text:macRadioSetPanCoordinator)
                  000145b0    00000030                                         : mac_rx_onoff.obj (.text:macRxHardDisable)
                  000145e0    00000030                                         : mac_symbol_timer.obj (.text:macSymbolTimerBCWakeUp)
                  00014610    00000030                                         : mac_symbol_timer.obj (.text:macSymbolTimerICallTimerCback)
                  00014640    00000030                                         : mac_timer.obj (.text:macTimerCheckUnAlignedQ)
                  00014670    00000030     ti_sysbios_config.obj (.text:ti_sysbios_family_arm_cc26xx_Timer_getCurrentTick)
                  000146a0    00000030     ti_sysbios_config.obj (.text:ti_sysbios_knl_ClockSupport_init)
                  000146d0    00000030     ti_sysbios_config.obj (.text:ti_sysbios_knl_Clock_Instance_init)
                  00014700    00000030     ti_sysbios_config.obj (.text:ti_sysbios_knl_Clock_getTicksUntilInterrupt)
                  00014730    00000030     ti_sysbios_config.obj (.text:ti_sysbios_knl_Swi_init)
                  00014760    00000030     ti_sysbios_config.obj (.text:ti_sysbios_knl_Swi_setPri)
                  00014790    00000030     ti_sysbios_config.obj (.text:ti_sysbios_knl_TaskSupport_start)
                  000147c0    00000030     ti_sysbios_config.obj (.text:ti_sysbios_knl_Task_restore)
                  000147f0    0000002e     csf.obj (.text:Csf_getDeviceShort)
                  0001481e    0000002e     maclib_osal_tirtos7_cc13x2_26x2.a : osal_port.obj (.text:OsalPort_msgDequeue)
                  0001484c    0000002e                                       : osal_port.obj (.text:OsalPort_msgEnqueue)
                  0001487a    0000002e     rf_multiMode_cc26x2.a : RFCC26X2_multiMode.c.cc26x2.ccs.o (.text:RF_queueEnd)
                  000148a8    0000002e     drivers_cc26x2.a : UART2CC26X2.oem4f (.text:UART2Support_enableInts)
                  000148d6    0000002e     ti_sysbios_config.obj (.text:ti_sysbios_family_arm_m3_Hwi_initStack)
                  00014904    0000002c     drivers_cc26x2.a : GPIO.oem4f (.text:GPIO_resetConfig)
                  00014930    0000002c                      : GPIOCC26XX.oem4f (.text:GPIO_setInterruptConfig)
                  0001495c    0000002c     ti_sysbios_config.obj (.text:MemAlloc_alloc)
                  00014988    0000002c     drivers_cc26x2.a : NVS.oem4f (.text:NVS_init)
                  000149b4    0000002c     rf_multiMode_cc26x2.a : RFCC26X2_multiMode.c.cc26x2.ccs.o (.text:RF_executeDirectImmediateCmd)
                  000149e0    0000002c     drivers_cc26x2.a : TRNGCC26XX.oem4f (.text:TRNGCC26XX_stopTrng)
                  00014a0c    0000002c     rf_multiMode_cc26x2.a : rf_patch_cpe_ieee_802_15_4.c.cc26x2.ccs.o (.text:applyIeee802154Patch)
                  00014a38    0000002c     collector.obj (.text:findDeviceStatusBit$3)
                  00014a64    0000002c     drivers_cc26x2.a : PowerCC26X2.oem4f (.text:hposcRtcCompensateFxn)
                  00014a90    0000002c     maclib_secure_cc26x2_2_4g_tirtos7.a : mac_rx_onoff.obj (.text:macRxSoftDisable)
                  00014abc    0000002c                                         : mac_rx_onoff.obj (.text:macRxSoftEnable)
                  00014ae8    0000002c                                         : mac_symbol_timer.obj (.text:macSymbolTimerSetRollover)
                  00014b14    0000002c                                         : saddr.obj (.text:sAddrCmp)
                  00014b40    0000002c     ti_sysbios_config.obj (.text:ti_sysbios_knl_Semaphore_pendTimeout)
                  00014b6c    0000002c     ti_sysbios_config.obj (.text:ti_sysbios_knl_Task_init)
                  00014b98    0000002c     ti_sysbios_config.obj (.text:ti_sysbios_runtime_System_putchar)
                  00014bc4    0000002a     drivers_cc26x2.a : List.oem4f (.text:List_insert)
                  00014bee    0000002a     maclib_secure_cc26x2_2_4g_tirtos7.a : mac_autopend.obj (.text:MAC_SrcMatchDeleteEntry)
                  00014c18    0000002a     rf_multiMode_cc26x2.a : RFCC26X2_multiMode.c.cc26x2.ccs.o (.text:RF_searchAndReplacePAOverride)
                  00014c42    0000002a     drivers_cc26x2.a : RingBuf.oem4f (.text:RingBuf_getPointer)
                  00014c6c    0000002a     maclib_secure_cc26x2_2_4g_tirtos7.a : mac_radio.obj (.text:radioComputeED)
                  00014c96    0000002a     ti_sysbios_config.obj (.text:ti_sysbios_knl_Clock_getTimeout)
                  00014cc0    00000028     ti_sysbios_config.obj (.text:BIOS_init)
                  00014ce8    00000028     ti_sysbios_config.obj (.text:BIOS_rtsLock)
                  00014d10    00000028     cui.obj (.text:CUI_publicAPIChecks$6)
                  00014d38    00000028     drivers_cc26x2.a : GPIOCC26XX.oem4f (.text:GPIO_setMux)
                  00014d60    00000028     rf_multiMode_cc26x2.a : rfc.c.cc26x2.ccs.o (.text:NOROM_RFCOverrideSearch)
                  00014d88    00000028     nvocmp.obj (.text:NVOCMP_findDstPage$15)
                  00014db0    00000028     nvocmp.obj (.text:NVOCMP_setCompactHdr$15)
                  00014dd8    00000028     drivers_cc26x2.a : PowerCC26X2.oem4f (.text:Power_registerNotify)
                  00014e00    00000028     rf_multiMode_cc26x2.a : RFCC26X2_multiMode.c.cc26x2.ccs.o (.text:RF_calculateDeltaTimeUs)
                  00014e28    00000028     cui.obj (.text:UartWriteCallback$6)
                  00014e50    00000028     csf.obj (.text:getNumActiveDevices$4)
                  00014e78    00000028     maclib_secure_cc26x2_2_4g_tirtos7.a : mac_rx_onoff.obj (.text:macRxEnable)
                  00014ea0    00000028     drivers_cc26x2.a : PowerCC26X2.oem4f (.text:oscillatorISR)
                  00014ec8    00000028                      : NVSCC26XX.oem4f (.text:restoreFlashCache)
                  00014ef0    00000028     cllc.obj (.text:startCnfCb$5)
                  00014f18    00000028     ti_sysbios_config.obj (.text:ti_sysbios_family_arm_m3_Hwi_construct)
                  00014f40    00000028     sysbios.a : Hwi_asm.obj (.text:ti_sysbios_family_arm_m3_Hwi_excHandlerAsm)
                  00014f68    00000028     ti_sysbios_config.obj (.text:ti_sysbios_knl_Semaphore_Instance_init)
                  00014f90    00000028     ti_sysbios_config.obj (.text:ti_sysbios_knl_Task_moduleStateCheck)
                  00014fb8    00000028     ti_sysbios_config.obj (.text:ti_sysbios_knl_Task_restoreHwi)
                  00014fe0    00000026     ti_drivers_config.obj (.text:Board_init)
                  00015006    00000026     drivers_cc26x2.a : List.oem4f (.text:List_put)
                  0001502c    00000026                      : List.oem4f (.text:List_putHead)
                  00015052    00000026                      : List.oem4f (.text:List_remove)
                  00015078    00000026     rtsv7M4_T_le_v4SPD16_eabi.lib : strncat.c.obj (.text:strncat)
                  0001509e    00000026     sysbios.a : Hwi_asm.obj (.text:ti_sysbios_family_arm_m3_Hwi_pendSV)
                  000150c4    00000026     ti_sysbios_config.obj (.text:ti_sysbios_runtime_System_vprintf)
                  000150ea    00000002     --HOLE-- [fill = 0]
                  000150ec    00000024     ti_sysbios_config.obj (.text:BIOS_registerRTSLock)
                  00015110    00000024     driverlib.lib : osc.obj (.text:NOROM_OSCHF_TurnOnXosc)
                  00015134    00000024     rf_multiMode_cc26x2.a : rfc.c.cc26x2.ccs.o (.text:NOROM_RFCDoorbellSendTo)
                  00015158    00000024                           : RFCC26X2_multiMode.c.cc26x2.ccs.o (.text:RF_cmdAlloc)
                  0001517c    00000024                           : RFCC26X2_multiMode.c.cc26x2.ccs.o (.text:RF_invokeGlobalCallback)
                  000151a0    00000024     ti_sysbios_config.obj (.text:SemaphoreP_createBinary)
                  000151c4    00000024     cllc.obj (.text:disassocCnfCb$5)
                  000151e8    00000024     cllc.obj (.text:disassocIndCb$5)
                  0001520c    00000024     drivers_cc26x2.a : PowerCC26X2_calibrateRCOSC.oem4f (.text:getTdcSemaphore)
                  00015230    00000024     maclib_secure_cc26x2_2_4g_tirtos7.a : mac_radio.obj (.text:macRadioSwInit)
                  00015254    00000024                                         : mac.obj (.text:macSetupFsCmd)
                  00015278    00000024                                         : mac_symbol_timer.obj (.text:macSymbolTimerPowerDown)
                  0001529c    00000024                                         : mac_timer.obj (.text:macTimer)
                  000152c0    00000024     rtsv7M4_T_le_v4SPD16_eabi.lib : memcmp.c.obj (.text:memcmp)
                  000152e4    00000024     collector.obj (.text:processConfigRetry$3)
                  00015308    00000024     ti_sysbios_config.obj (.text:ti_sysbios_family_arm_cc26xx_Timer_getMaxTicks)
                  0001532c    00000024     ti_sysbios_config.obj (.text:ti_sysbios_family_arm_m3_Hwi_setPriority)
                  00015350    00000024     ti_sysbios_config.obj (.text:ti_sysbios_gates_GateMutexPri_Instance_init)
                  00015374    00000024     ti_sysbios_config.obj (.text:ti_sysbios_knl_Task_allBlockedFunction)
                  00015398    00000024     ti_sysbios_config.obj (.text:ti_sysbios_knl_Task_enter)
                  000153bc    00000024     maclib_secure_cc26x2_2_4g_tirtos7.a : mac_tx.obj (.text:txGo$25)
                  000153e0    00000022     drivers_cc26x2.a : LED.oem4f (.text:LED_stopBlinking)
                  00015402    00000022                      : List.oem4f (.text:List_get)
                  00015424    00000022     maclib_osal_tirtos7_cc13x2_26x2.a : osal_port.obj (.text:OsalPort_msgAllocate)
                  00015446    00000022     collector.obj (.text:pollIndCB$3)
                  00015468    00000020     ti_sysbios_config.obj (.text:BIOS_removeRTSLock)
                  00015488    00000020     ti_sysbios_config.obj (.text:BIOS_rtsUnlock)
                  000154a8    00000020     cui.obj (.text:CUI_getClientIndex$6)
                  000154c8    00000020     cui.obj (.text:CUI_updateRemLen$6)
                  000154e8    00000020     maclib_secure_cc26x2_2_4g_tirtos7.a : mac_autopend.obj (.text:MAC_SrcMatchAckAllPending)
                  00015508    00000020     nvocmp.obj (.text:NVOCMP_readByte$15)
                  00015528    00000020     maclib_osal_tirtos7_cc13x2_26x2.a : osal_port.obj (.text:OsalPort_memcmp)
                  00015548    00000020                                       : osal_port.obj (.text:OsalPort_msgDeallocate)
                  00015568    00000020     drivers_cc26x2.a : PowerCC26X2.oem4f (.text:Power_unregisterNotify)
                  00015588    00000020     rf_multiMode_cc26x2.a : RFCC26X2_multiMode.c.cc26x2.ccs.o (.text:RF_clkPowerUp)
                  000155a8    00000020                           : RFCC26X2_multiMode.c.cc26x2.ccs.o (.text:RF_hwiCpe0ChangePhy)
                  000155c8    00000020                           : RFCC26X2_multiMode.c.cc26x2.ccs.o (.text:RF_isStateTransitionAllowed)
                  000155e8    00000020                           : RFCC26X2_multiMode.c.cc26x2.ccs.o (.text:RF_ratIsRunning)
                  00015608    00000020                           : RFCC26X2_multiMode.c.cc26x2.ccs.o (.text:RF_setTxPower)
                  00015628    00000020     ti_sysbios_config.obj (.text:SemaphoreP_constructBinary)
                  00015648    00000020     drivers_cc26x2.a : UART2.oem4f (.text:UART2_read)
                  00015668    00000020     crc.obj (.text:crc_update)
                  00015688    00000020     maclib_secure_cc26x2_2_4g_tirtos7.a : mac_radio.obj (.text:macGetRadioState)
                  000156a8    00000020                                         : mac_radio.obj (.text:macRadioEnergyDetectStop)
                  000156c8    00000020                                         : mac_radio.obj (.text:macRadioSetIEEEAddr)
                  000156e8    00000020                                         : mac_rx.obj (.text:macRxSFDTimerExpiry)
                  00015708    00000020     csf.obj (.text:openCloseNwkAndUpdateUser$4)
                  00015728    00000020     csf.obj (.text:processBroadcastTimeoutCallback$4)
                  00015748    00000020     csf.obj (.text:processConfigTimeoutCallback$4)
                  00015768    00000020     csf.obj (.text:processKeyChangeCallback$4)
                  00015788    00000020     csf.obj (.text:processTrackingTimeoutCallback$4)
                  000157a8    00000020     drivers_cc26x2.a : TemperatureCC26X2.oem4f (.text:setTempLowerLimit)
                  000157c8    00000020                      : TemperatureCC26X2.oem4f (.text:setTempUpperLimit)
                  000157e8    00000020     ti_sysbios_config.obj (.text:ti_sysbios_knl_Clock_create)
                  00015808    00000020     ti_sysbios_config.obj (.text:ti_sysbios_knl_Task_construct)
                  00015828    0000001e     maclib_osal_tirtos7_cc13x2_26x2.a : osal_port.obj (.text:OsalPort_buildUint32)
                  00015846    0000001e     drivers_cc26x2.a : PowerCC26X2.oem4f (.text:Power_getTransitionLatency)
                  00015864    0000001e                      : UART2CC26X2.oem4f (.text:UART2Support_disableRx)
                  00015882    0000001e     rf_multiMode_cc26x2.a : rf_patch_cpe_ieee_802_15_4.c.cc26x2.ccs.o (.text:configureIeee802154Patch)
                  000158a0    0000001e     maclib_secure_cc26x2_2_4g_tirtos7.a : mac_hl_patch.obj (.text:macPibIndex)
                  000158be    0000001e     csf.obj (.text:moveCursorLeft$4)
                  000158dc    0000001e     csf.obj (.text:moveCursorRight$4)
                  000158fa    0000001e     drivers_cc26x2.a : Button.oem4f (.text:msToTicks)
                  00015918    0000001e                      : LED.oem4f (.text:msToTicks)
                  00015936    0000001e     rtsv7M4_T_le_v4SPD16_eabi.lib : ll_asr_t2.asm.obj (.text)
                  00015954    0000001e     sysbios.a : Hwi_asm_switch.obj (.text:ti_sysbios_family_arm_m3_Hwi_switchAndRunFunc)
                  00015972    0000001e     ti_sysbios_config.obj (.text:ti_sysbios_knl_Semaphore_create)
                  00015990    0000001e     ti_sysbios_config.obj (.text:ti_sysbios_knl_Semaphore_destruct)
                  000159ae    0000001e     ti_sysbios_config.obj (.text:ti_sysbios_knl_Task_getModuleStateCheckValue)
                  000159cc    0000001c     cllc.obj (.text:Cllc_findDevice)
                  000159e8    0000001c     cllc.obj (.text:Cllc_securityFill)
                  00015a04    0000001c     cllc.obj (.text:Cllc_setChanMask)
                  00015a20    0000001c     drivers_cc26x2.a : GPIOCC26XX.oem4f (.text:GPIO_read)
                  00015a3c    0000001c     driverlib.lib : chipinfo.obj (.text:NOROM_ChipInfo_GetChipFamily)
                  00015a58    0000001c                   : flash.obj (.text:NOROM_FlashProgram)
                  00015a74    0000001c                   : flash.obj (.text:NOROM_FlashSectorErase)
                  00015a90    0000001c     nvocmp.obj (.text:NVOCMP_getCompactHdr$15)
                  00015aac    0000001c     nvocmp.obj (.text:NVOCMP_writeByte$15)
                  00015ac8    0000001c     drivers_cc26x2.a : NVSCC26XX.oem4f (.text:NVSCC26XX_getAttrs)
                  00015ae4    0000001c                      : NVSCC26XX.oem4f (.text:NVSCC26XX_lock)
                  00015b00    0000001c     rf_multiMode_cc26x2.a : RFCC26X2_multiMode.c.cc26x2.ccs.o (.text:RF_ScheduleCmdParams_init)
                  00015b1c    0000001c                           : RFCC26X2_multiMode.c.cc26x2.ccs.o (.text:RF_clkInactivityCallback)
                  00015b38    0000001c                           : RFCC26X2_multiMode.c.cc26x2.ccs.o (.text:RF_getPAOverrideOffsetAndValue)
                  00015b54    0000001c                           : RFCC26X2_multiMode.c.cc26x2.ccs.o (.text:RF_getRssi)
                  00015b70    0000001c                           : RFCC26X2_multiMode.c.cc26x2.ccs.o (.text:RF_powerConstraintSet)
                  00015b8c    0000001c     drivers_cc26x2.a : UDMACC26XX.oem4f (.text:UDMACC26XX_initHw)
                  00015ba8    0000001c     cui.obj (.text:UartReadCallback$6)
                  00015bc4    0000001c     cllc.obj (.text:dataIndCb$5)
                  00015be0    0000001c     maclib_secure_cc26x2_2_4g_tirtos7.a : mac_mcu.obj (.text:macMcuTimerCapture)
                  00015bfc    0000001c                                         : mac.obj (.text:macNopBackoffTimerExpiry)
                  00015c18    0000001c                                         : mac_rx.obj (.text:macRxAckTxDoneCallback)
                  00015c34    0000001c                                         : mac_timer.obj (.text:macTimerRemoveTimer)
                  00015c50    0000001c                                         : mac_rx.obj (.text:rxDiscardFrame$22)
                  00015c6c    0000001c                                         : mac_rx.obj (.text:rxDone$22)
                  00015c88    0000001c                                         : saddr.obj (.text:sAddrExtCmp)
                  00015ca4    0000001c     csf.obj (.text:sensorDeviceTypeRequestAction$4)
                  00015cc0    0000001c     csf.obj (.text:sensorDisassocAction$4)
                  00015cdc    0000001c     csf.obj (.text:sensorLedToggleAction$4)
                  00015cf8    0000001c     ti_sysbios_config.obj (.text:ti_sysbios_knl_Clock_scheduleNextTick)
                  00015d14    0000001c     ti_sysbios_config.obj (.text:ti_sysbios_knl_Queue_put)
                  00015d30    0000001c     ti_sysbios_config.obj (.text:ti_sysbios_knl_Swi_construct)
                  00015d4c    0000001c     sysbios.a : TaskSupport_asm.obj (.text:ti_sysbios_knl_TaskSupport_swap)
                  00015d68    0000001a     drivers_cc26x2.a : LED.oem4f (.text:LED_toggle)
                  00015d82    0000001a     maclib_osal_tirtos7_cc13x2_26x2.a : osal_port.obj (.text:OsalPort_enterCS)
                  00015d9c    0000001a     drivers_cc26x2.a : PowerCC26X2.oem4f (.text:PowerCC26XX_calibrate)
                  00015db6    0000001a     ti_sysbios_config.obj (.text:SystemP_snprintf)
                  00015dd0    0000001a     api_mac.obj (.text:copyApiMacAddrToMacAddr)
                  00015dea    0000001a     maclib_secure_cc26x2_2_4g_tirtos7.a : mac_hl_patch.obj (.text:macCheckPhyMode)
                  00015e04    0000001a                                         : mac_mcu.obj (.text:macMcuLongDiv)
                  00015e1e    0000001a     ti_sysbios_config.obj (.text:ti_sysbios_family_arm_cc26xx_Timer_postInit)
                  00015e38    0000001a     ti_sysbios_config.obj (.text:ti_sysbios_knl_Clock_delete)
                  00015e52    0000001a     ti_sysbios_config.obj (.text:ti_sysbios_knl_Semaphore_delete)
                  00015e6c    0000001a     ti_sysbios_config.obj (.text:ti_sysbios_runtime_System_printf)
                  00015e86    0000001a     ti_sysbios_config.obj (.text:ti_sysbios_runtime_System_printfExtend)
                  00015ea0    00000018     drivers_cc26x2.a : GPIOCC26XX.oem4f (.text:GPIO_disableInt)
                  00015eb8    00000018                      : GPIO.oem4f (.text:GPIO_setCallback)
                  00015ed0    00000018     main.obj (.text:Main_assertHandler)
                  00015ee8    00000018     nvocmp.obj (.text:NVOCMP_expectCompApi$15)
                  00015f00    00000018     nvocmp.obj (.text:NVOCMP_restoreCache$15)
                  00015f18    00000018     maclib_osal_tirtos7_cc13x2_26x2.a : osal_port.obj (.text:OsalPort_msgPush)
                  00015f30    00000018     ti_sysbios_config.obj (.text:PowerCC26XX_schedulerDisable)
                  00015f48    00000018     ti_sysbios_config.obj (.text:PowerCC26XX_schedulerRestore)
                  00015f60    00000018     drivers_cc26x2.a : PowerCC26X2.oem4f (.text:Power_idleFunc)
                  00015f78    00000018     rf_multiMode_cc26x2.a : RFCC26X2_multiMode.c.cc26x2.ccs.o (.text:RF_cancelCmd)
                  00015f90    00000018                           : RFCC26X2_multiMode.c.cc26x2.ccs.o (.text:RF_swiFsm)
                  00015fa8    00000018     drivers_cc26x2.a : TRNGCC26XX.oem4f (.text:TRNGCC26XX_startJob)
                  00015fc0    00000018                      : UART2.oem4f (.text:UART2_Params_init)
                  00015fd8    00000018     rtsv7M4_T_le_v4SPD16_eabi.lib : args_main.c.obj (.text:_args_main)
                  00015ff0    00000018     drivers_cc26x2.a : TemperatureCC26X2.oem4f (.text:clearEventFlags)
                  00016008    00000018     csf.obj (.text:closeNwkAction$4)
                  00016020    00000018     collector.obj (.text:commStatusIndCB$3)
                  00016038    00000018     api_mac.obj (.text:copyMacAddrToApiMacAddr$8)
                  00016050    00000018     csf.obj (.text:formNwkAction$4)
                  00016068    00000018     maclib_secure_cc26x2_2_4g_tirtos7.a : mac_radio.obj (.text:macRadioSetPanID)
                  00016080    00000018                                         : mac_radio.obj (.text:macRadioSetShortAddr)
                  00016098    00000018                                         : mac_radio.obj (.text:macRadioSetTxPower)
                  000160b0    00000018                                         : mac.obj (.text:macRxBackoffTimerExpiry)
                  000160c8    00000018                                         : mac_rx_onoff.obj (.text:macRxOnRequest)
                  000160e0    00000018                                         : mac_autopend.obj (.text:macSrcMatchGetEnableBit$18)
                  000160f8    00000018                                         : mac_symbol_timer.obj (.text:macSymbolBCTimerPowerUp)
                  00016110    00000018                                         : mac_symbol_timer.obj (.text:macSymbolTimerRestore)
                  00016128    00000018                                         : mac_symbol_timer.obj (.text:macSymbolTimerSetTriggerRollover)
                  00016140    00000018                                         : mac_timer.obj (.text:macTimerSyncRollover)
                  00016158    00000018                                         : mac.obj (.text:macTxBackoffTimerExpiry)
                  00016170    00000018                                         : mac_hl_patch.obj (.text:macWrapper8ByteUnused)
                  00016188    00000018     csf.obj (.text:openNwkAction$4)
                  000161a0    00000018     csf.obj (.text:processMenuUpdate$4)
                  000161b8    00000018     rtsv7M4_T_le_v4SPD16_eabi.lib : ll_mul_t2.asm.obj (.text)
                  000161d0    00000018     drivers_cc26x2.a : PowerCC26X2.oem4f (.text:switchToTCXO)
                  000161e8    00000018     ti_sysbios_config.obj (.text:ti_sysbios_family_arm_cc26xx_Timer_Params_init)
                  00016200    00000018     ti_sysbios_config.obj (.text:ti_sysbios_family_arm_cc26xx_Timer_dynamicStub)
                  00016218    00000018     ti_sysbios_config.obj (.text:ti_sysbios_family_arm_m3_Hwi_plug)
                  00016230    00000018     ti_sysbios_config.obj (.text:ti_sysbios_family_arm_m3_Hwi_switchFromBootStack)
                  00016248    00000018     ti_sysbios_config.obj (.text:ti_sysbios_knl_Clock_getTicks)
                  00016260    00000018     ti_sysbios_config.obj (.text:ti_sysbios_knl_Swi_Params_init)
                  00016278    00000018     ti_sysbios_config.obj (.text:ti_sysbios_knl_Swi_destruct)
                  00016290    00000018     ti_sysbios_config.obj (.text:ti_sysbios_knl_Swi_or)
                  000162a8    00000018     ti_sysbios_config.obj (.text:ti_sysbios_knl_Task_Params_init)
                  000162c0    00000018     ti_sysbios_config.obj (.text:ti_sysbios_knl_Task_unblock)
                  000162d8    00000018     ti_sysbios_config.obj (.text:ti_sysbios_runtime_System_init)
                  000162f0    00000018     maclib_secure_cc26x2_2_4g_tirtos7.a : mac_tx.obj (.text:txCsmaGo$25)
                  00016308    00000018     cllc.obj (.text:updateState$5)
                  00016320    00000016     ti_sysbios_config.obj (.text:BIOS_exitFunc)
                  00016336    00000016     ti_sysbios_config.obj (.text:HwiP_interruptsEnabled)
                  0001634c    00000016     ti_sysbios_config.obj (.text:HwiP_setFunc)
                  00016362    00000016     maclib_osal_tirtos7_cc13x2_26x2.a : osal_port.obj (.text:OsalPort_leaveCS)
                  00016378    00000016     rf_multiMode_cc26x2.a : RFCC26X2_multiMode.c.cc26x2.ccs.o (.text:RF_restartClockTimeout)
                  0001638e    00000016     maclib_osal_tirtos7_cc13x2_26x2.a : mac_util.obj (.text:Util_clearEvent)
                  000163a4    00000016                                       : mac_util.obj (.text:Util_setEvent)
                  000163ba    00000016     ti_sysbios_config.obj (.text:ti_sysbios_gates_GateMutexPri_create)
                  000163d0    00000016     ti_sysbios_config.obj (.text:ti_sysbios_knl_Clock_Instance_finalize)
                  000163e6    00000016     ti_sysbios_config.obj (.text:ti_sysbios_knl_Clock_start)
                  000163fc    00000016     ti_sysbios_config.obj (.text:ti_sysbios_knl_Task_block)
                  00016412    00000002     --HOLE-- [fill = 0]
                  00016414    00000014     drivers_cc26x2.a : AESCCMCC26XX.oem4f (.text:AESCCM_init)
                  00016428    00000014     ti_sysbios_config.obj (.text:BIOS_setThreadType)
                  0001643c    00000014     drivers_cc26x2.a : Button.oem4f (.text:Button_Params_init)
                  00016450    00000014     cui.obj (.text:CUI_menuActionBack)
                  00016464    00000014     drivers_cc26x2.a : List.oem4f (.text:List_clearList)
                  00016478    00000014     macTask.obj (.text:MAC_CbackCheckPending)
                  0001648c    00000014     macTask.obj (.text:MAC_CbackQueryRetransmit)
                  000164a0    00000014     maclib_secure_cc26x2_2_4g_tirtos7.a : mac_autopend.obj (.text:MAC_SrcMatchCheckAllPending)
                  000164b4    00000014     rf_multiMode_cc26x2.a : rfc.c.cc26x2.ccs.o (.text:NOROM_RFCCpeIntGetAndClear)
                  000164c8    00000014     drivers_cc26x2.a : PWM.oem4f (.text:PWM_Params_init)
                  000164dc    00000014                      : PowerCC26X2_calibrateRCOSC.oem4f (.text:PowerCC26X2_calibrate)
                  000164f0    00000014     rf_multiMode_cc26x2.a : RFCC26X2_multiMode.c.cc26x2.ccs.o (.text:RF_Params_init)
                  00016504    00000014                           : RFCC26X2_multiMode.c.cc26x2.ccs.o (.text:RF_RatConfigCompare_init)
                  00016518    00000014                           : RFCC26X2_multiMode.c.cc26x2.ccs.o (.text:RF_dbellSyncOnAck)
                  0001652c    00000014                           : RFCC26X2_multiMode.c.cc26x2.ccs.o (.text:RF_flushCmd)
                  00016540    00000014                           : RFCC26X2_multiMode.c.cc26x2.ccs.o (.text:RF_ratCompare)
                  00016554    00000014                           : RFCC26X2_multiMode.c.cc26x2.ccs.o (.text:RF_ratGetChannel)
                  00016568    00000014     drivers_cc26x2.a : StructRingBuf.oem4f (.text:StructRingBuf_construct)
                  0001657c    00000014                      : TRNGCC26XX.oem4f (.text:TRNG_close)
                  00016590    00000014                      : TemperatureCC26X2.oem4f (.text:Temperature_getTemperature)
                  000165a4    00000014     cllc.obj (.text:commStatusIndCb$5)
                  000165b8    00000014     drivers_cc26x2.a : TemperatureCC26X2.oem4f (.text:disableTempLowerLimit)
                  000165cc    00000014                      : TemperatureCC26X2.oem4f (.text:disableTempUpperLimit)
                  000165e0    00000014                      : TemperatureCC26X2.oem4f (.text:enableTempLowerLimit)
                  000165f4    00000014                      : TemperatureCC26X2.oem4f (.text:enableTempUpperLimit)
                  00016608    00000014     maclib_secure_cc26x2_2_4g_tirtos7.a : mac_mcu.obj (.text:macMcuInit)
                  0001661c    00000014                                         : mac_mcu.obj (.text:macMcuOverflowCapture)
                  00016630    00000014                                         : mac.obj (.text:macSendFsCmd)
                  00016644    00000014                                         : saddr.obj (.text:sAddrCpy)
                  00016658    00000014                                         : saddr.obj (.text:sAddrExtCpy)
                  0001666c    00000014     rtsv7M4_T_le_v4SPD16_eabi.lib : strlen.c.obj (.text:strlen)
                  00016680    00000014     cllc.obj (.text:switchState$5)
                  00016694    00000014     ti_sysbios_config.obj (.text:ti_sysbios_family_arm_m3_Hwi_Params_init)
                  000166a8    00000014     ti_sysbios_config.obj (.text:ti_sysbios_knl_Clock_construct)
                  000166bc    00000014     ti_sysbios_config.obj (.text:ti_sysbios_knl_Semaphore_construct)
                  000166d0    00000014     ti_sysbios_config.obj (.text:ti_sysbios_knl_Swi_construct2)
                  000166e4    00000014     ti_sysbios_config.obj (.text:ti_sysbios_knl_Swi_disable)
                  000166f8    00000014     ti_sysbios_config.obj (.text:ti_sysbios_knl_Swi_enabled)
                  0001670c    00000014     ti_sysbios_config.obj (.text:ti_sysbios_knl_Task_disable)
                  00016720    00000014     ti_sysbios_config.obj (.text:ti_sysbios_knl_Task_objectCheck)
                  00016734    00000014     ti_sysbios_config.obj (.text:ti_sysbios_runtime_Memory_free)
                  00016748    00000014     drivers_cc26x2.a : Button.oem4f (.text:timediff)
                  0001675c    00000012                      : LED.oem4f (.text:LED_Params_init)
                  0001676e    00000012     rf_multiMode_cc26x2.a : RFCC26X2_multiMode.c.cc26x2.ccs.o (.text:RF_getCmdOp)
                  00016780    00000012     drivers_cc26x2.a : RingBuf.oem4f (.text:RingBuf_construct)
                  00016792    00000012     ti_sysbios_config.obj (.text:SemaphoreP_pend)
                  000167a4    00000012     drivers_cc26x2.a : UART2CC26X2.oem4f (.text:UART2CC26X2_writeTimeout)
                  000167b6    00000012     driverlib.lib : osc.obj (.text:readTempAndFreq$43)
                  000167c8    00000012     ti_sysbios_config.obj (.text:ti_sysbios_runtime_System_abort)
                  000167da    00000002     --HOLE-- [fill = 0]
                  000167dc    00000010     drivers_cc26x2.a : AESCCM.oem4f (.text:AESCCM_Params_init)
                  000167ec    00000010                      : AESCCM.oem4f (.text:AESCCM_open)
                  000167fc    00000010     ti_sysbios_config.obj (.text:BIOS_exit)
                  0001680c    00000010     ti_sysbios_config.obj (.text:BIOS_getCpuFreq)
                  0001681c    00000010     ti_sysbios_config.obj (.text:BIOS_start)
                  0001682c    00000010     cllc.obj (.text:Cllc_getDefaultKey)
                  0001683c    00000010     drivers_cc26x2.a : GPIO.oem4f (.text:GPIO_setUserArg)
                  0001684c    00000010                      : GPIOCC26XX.oem4f (.text:GPIO_write)
                  0001685c    00000010     ti_sysbios_config.obj (.text:HwiP_Params_init)
                  0001686c    00000010     rf_multiMode_cc26x2.a : rfc.c.cc26x2.ccs.o (.text:NOROM_RFCHwIntGetAndClear)
                  0001687c    00000010                           : RFCC26X2_multiMode.c.cc26x2.ccs.o (.text:RF_dbellSubmitCmdAsync)
                  0001688c    00000010                           : RFCC26X2_multiMode.c.cc26x2.ccs.o (.text:RF_isClientOwner)
                  0001689c    00000010     ti_sysbios_config.obj (.text:SwiP_Params_init)
                  000168ac    00000010     ti_sysbios_config.obj (.text:SwiP_setPriority)
                  000168bc    00000010     drivers_cc26x2.a : UART2CC26X2.oem4f (.text:UART2CC26X2_postNotifyFxn)
                  000168cc    00000010                      : UART2CC26X2.oem4f (.text:UART2CC26X2_readTimeout)
                  000168dc    00000010                      : UART2CC26X2.oem4f (.text:UART2Support_rxStatus2ErrorCode)
                  000168ec    00000010                      : UART2CC26X2.oem4f (.text:UART2Support_txDone)
                  000168fc    00000010     ti_sysbios_config.obj (.text:ti_sysbios_family_arm_cc26xx_Timer_getCount64)
                  0001690c    00000010     ti_sysbios_config.obj (.text:ti_sysbios_family_arm_m3_Hwi_excHandler)
                  0001691c    00000010     ti_sysbios_config.obj (.text:ti_sysbios_family_arm_m3_Hwi_post)
                  0001692c    00000010     ti_sysbios_config.obj (.text:ti_sysbios_knl_Clock_Params_init)
                  0001693c    00000010     ti_sysbios_config.obj (.text:ti_sysbios_knl_Clock_enqueueI)
                  0001694c    00000010     ti_sysbios_config.obj (.text:ti_sysbios_knl_Idle_run)
                  0001695c    00000010     ti_sysbios_config.obj (.text:ti_sysbios_knl_Semaphore_Params_init)
                  0001696c    00000010     sysbios.a : TaskSupport_asm.obj (.text:ti_sysbios_knl_TaskSupport_glue)
                  0001697c    00000010     ti_sysbios_config.obj (.text:ti_sysbios_runtime_System_vsnprintf)
                  0001698c    0000000e     api_mac.obj (.text:ApiMac_mlmeSetReqBool)
                  0001699a    0000000e     api_mac.obj (.text:ApiMac_mlmeSetReqUint16)
                  000169a8    0000000e     api_mac.obj (.text:ApiMac_mlmeSetReqUint8)
                  000169b6    0000000e     drivers_cc26x2.a : CryptoKeyPlaintextCC26XX.oem4f (.text:CryptoKeyPlaintext_initBlankKey)
                  000169c4    0000000e                      : CryptoKeyPlaintextCC26XX.oem4f (.text:CryptoKeyPlaintext_initKey)
                  000169d2    0000000e                      : NVS.oem4f (.text:NVS_write)
                  000169e0    0000000e     rf_multiMode_cc26x2.a : RFCC26X2_multiMode.c.cc26x2.ccs.o (.text:RF_getSwitchingTimeInUs)
                  000169ee    0000000e     drivers_cc26x2.a : StructRingBuf.oem4f (.text:StructRingBuf_isFull)
                  000169fc    0000000e                      : UART2.oem4f (.text:UART2_write)
                  00016a0a    0000000e     maclib_osal_tirtos7_cc13x2_26x2.a : mac_util.obj (.text:Util_buildUint32)
                  00016a18    0000000e     rtsv7M4_T_le_v4SPD16_eabi.lib : copy_decompress_none.c.obj (.text:decompress:none:__TI_decompress_none)
                  00016a26    0000000e     ti_sysbios_config.obj (.text:ti_sysbios_knl_Clock_initI)
                  00016a34    0000000e     ti_sysbios_config.obj (.text:ti_sysbios_knl_Queue_empty)
                  00016a42    0000000e     ti_sysbios_config.obj (.text:ti_sysbios_knl_Queue_remove)
                  00016a50    0000000c     drivers_cc26x2.a : AESCCMCC26XX.oem4f (.text:AESCCM_close)
                  00016a5c    0000000c     ti_sysbios_config.obj (.text:BIOS_linkedWithIncorrectBootLibrary)
                  00016a68    0000000c     cllc.obj (.text:Cllc_getChanMask)
                  00016a74    0000000c     ti_sysbios_config.obj (.text:ClockP_delete)
                  00016a80    0000000c     ti_sysbios_config.obj (.text:HwiP_disable)
                  00016a8c    0000000c     maclib_secure_cc26x2_2_4g_tirtos7.a : mac_pwr.obj (.text:MAC_PwrMode)
                  00016a98    0000000c     driverlib.lib : cpu.obj (.text:NOROM_CPUcpsid)
                  00016aa4    0000000c                   : cpu.obj (.text:NOROM_CPUcpsie)
                  00016ab0    0000000c     nvocmp.obj (.text:NVOCMP_doRAMCRC$15)
                  00016abc    0000000c     drivers_cc26x2.a : NVSCC26XX.oem4f (.text:NVSCC26XX_unlock)
                  00016ac8    0000000c     maclib_osal_tirtos7_cc13x2_26x2.a : osal_port.obj (.text:OsalPort_clockFunc$39)
                  00016ad4    0000000c                                       : osal_port.obj (.text:OsalPort_stopTimer)
                  00016ae0    0000000c     drivers_cc26x2.a : PowerCC26X2.oem4f (.text:Power_getConstraintMask)
                  00016aec    0000000c                      : PowerCC26X2.oem4f (.text:Power_getDependencyCount)
                  00016af8    0000000c     rf_multiMode_cc26x2.a : RFCC26X2_multiMode.c.cc26x2.ccs.o (.text:RF_powerConstraintGet)
                  00016b04    0000000c     ti_sysbios_config.obj (.text:SemaphoreP_delete)
                  00016b10    0000000c     drivers_cc26x2.a : UART2CC26X2.oem4f (.text:UART2Support_disableTx)
                  00016b1c    0000000c                      : UART2CC26X2.oem4f (.text:UART2Support_enableRx)
                  00016b28    0000000c                      : UART2CC26X2.oem4f (.text:UART2Support_enableTx)
                  00016b34    0000000c     rtsv7M4_T_le_v4SPD16_eabi.lib : _lock.c.obj (.text:_register_lock)
                  00016b40    0000000c                                   : _lock.c.obj (.text:_register_unlock)
                  00016b4c    0000000c                                   : copy_zero_init.c.obj (.text:decompress:ZI:__TI_zero_init)
                  00016b58    0000000c     maclib_secure_cc26x2_2_4g_tirtos7.a : mac_low_level.obj (.text:macLowLevelReset)
                  00016b64    0000000c                                         : mac_low_level.obj (.text:macLowLevelResume)
                  00016b70    0000000c                                         : mac_pwr.obj (.text:macPwrReset)
                  00016b7c    0000000c                                         : mac.obj (.text:macRegisterSfdDetect)
                  00016b88    0000000c                                         : mac_rx.obj (.text:macRxSequenceNum)
                  00016b94    0000000c     csf.obj (.text:processIdentifyTimeoutCallback$4)
                  00016ba0    0000000c     ti_sysbios_config.obj (.text:ti_sysbios_gates_GateMutexPri_construct)
                  00016bac    0000000c     ti_sysbios_config.obj (.text:ti_sysbios_heaps_HeapCallback_Instance_init)
                  00016bb8    0000000c     ti_sysbios_config.obj (.text:ti_sysbios_knl_ClockSupport_getCurrentTick)
                  00016bc4    0000000c     ti_sysbios_config.obj (.text:ti_sysbios_knl_ClockSupport_getMaxTicks)
                  00016bd0    0000000c     ti_sysbios_config.obj (.text:ti_sysbios_knl_ClockSupport_setNextTick)
                  00016bdc    0000000c     ti_sysbios_config.obj (.text:ti_sysbios_knl_Clock_tick)
                  00016be8    0000000c     ti_sysbios_config.obj (.text:ti_sysbios_knl_Queue_dequeue)
                  00016bf4    0000000c     ti_sysbios_config.obj (.text:ti_sysbios_knl_Queue_enqueue)
                  00016c00    0000000c     ti_sysbios_config.obj (.text:ti_sysbios_knl_Queue_insert)
                  00016c0c    0000000c     ti_sysbios_config.obj (.text:ti_sysbios_knl_Swi_getTrigger)
                  00016c18    0000000c     ti_sysbios_config.obj (.text:ti_sysbios_knl_Task_self)
                  00016c24    0000000c     ti_sysbios_config.obj (.text:ti_sysbios_runtime_System_exit)
                  00016c30    0000000a     ti_sysbios_config.obj (.text:ClockP_Params_init)
                  00016c3a    0000000a     drivers_cc26x2.a : NVS.oem4f (.text:NVS_erase)
                  00016c44    0000000a                      : NVS.oem4f (.text:NVS_getAttrs)
                  00016c4e    0000000a                      : NVS.oem4f (.text:NVS_read)
                  00016c58    0000000a                      : PWM.oem4f (.text:PWM_close)
                  00016c62    0000000a                      : PWM.oem4f (.text:PWM_setDuty)
                  00016c6c    0000000a                      : PWM.oem4f (.text:PWM_start)
                  00016c76    0000000a                      : UDMACC26XX.oem4f (.text:UDMACC26XX_hwiIntFxn)
                  00016c80    0000000a     maclib_osal_tirtos7_cc13x2_26x2.a : mac_util.obj (.text:Util_copyExtAddr)
                  00016c8a    0000000a     maclib_secure_cc26x2_2_4g_tirtos7.a : mac_mcu.obj (.text:macMcuRandomByte)
                  00016c94    00000008     drivers_cc26x2.a : AESCCM.oem4f (.text:AESCCM_Operation_init)
                  00016c9c    00000008     api_mac.obj (.text:ApiMac_mlmeSetReqArray)
                  00016ca4    00000008     drivers_cc26x2.a : NVSCC26XX.oem4f (.text:NVSCC26XX_close)
                  00016cac    00000008     rf_multiMode_cc26x2.a : RFCC26X2_multiMode.c.cc26x2.ccs.o (.text:RF_RatConfigOutput_init)
                  00016cb4    00000008     ti_sysbios_config.obj (.text:SemaphoreP_Params_init)
                  00016cbc    00000008     maclib_osal_tirtos7_cc13x2_26x2.a : util_timer.obj (.text:UtilTimer_setTimeout)
                  00016cc4    00000008                                       : mac_util.obj (.text:Util_breakUint32)
                  00016ccc    00000008                                       : mac_util.obj (.text:Util_buildUint16)
                  00016cd4    00000008     rtsv7M4_T_le_v4SPD16_eabi.lib : errno.c.obj (.text:__aeabi_errno_addr)
                  00016cdc    00000008     ti_sysbios_config.obj (.text:ti_sysbios_family_arm_m3_Hwi_doSwiRestore)
                  00016ce4    00000008     ti_sysbios_config.obj (.text:ti_sysbios_family_arm_m3_Hwi_startup)
                  00016cec    00000008     ti_sysbios_config.obj (.text:ti_sysbios_knl_Idle_loop)
                  00016cf4    00000006     drivers_cc26x2.a : AESCCMCC26XX.oem4f (.text:AESCCM_oneStepDecrypt)
                  00016cfa    00000006                      : AESCCMCC26XX.oem4f (.text:AESCCM_oneStepEncrypt)
                  00016d00    00000006                      : Button.oem4f (.text:Button_setCallback)
                  00016d06    00000006     cui.obj (.text:CUI_paramsInit)
                  00016d0c    00000006     main.obj (.text:Main_excHandler)
                  00016d12    00000006     driverlib.lib : cpu.obj (.text:NOROM_CPUdelay)
                  00016d18    00000006     drivers_cc26x2.a : NVSCC26XX.oem4f (.text:NVSCC26XX_control)
                  00016d1e    00000006     rf_multiMode_cc26x2.a : RFCC26X2_multiMode.c.cc26x2.ccs.o (.text:RF_clkReqAccess)
                  00016d24    00000006                           : RFCC26X2_multiMode.c.cc26x2.ccs.o (.text:RF_runDirectCmd)
                  00016d2a    00000006                           : RFCC26X2_multiMode.c.cc26x2.ccs.o (.text:RF_runImmediateCmd)
                  00016d30    00000006     drivers_cc26x2.a : UART2CC26X2.oem4f (.text:UART2Support_powerRelConstraint)
                  00016d36    00000006                      : UART2CC26X2.oem4f (.text:UART2Support_powerSetConstraint)
                  00016d3c    00000006     maclib_osal_tirtos7_cc13x2_26x2.a : mac_util.obj (.text:Util_hiUint16)
                  00016d42    00000006     main.obj (.text:assertHandler)
                  00016d48    00000006     drivers_cc26x2.a : PowerCC26X2.oem4f (.text:delayUs)
                  00016d4e    00000006     maclib_secure_cc26x2_2_4g_tirtos7.a : mac_hl_patch.obj (.text:macTxBackoffHandler)
                  00016d54    00000006     maclib_osal_tirtos7_cc13x2_26x2.a : osal_port.obj (.text:osalHeapAllocFxn)
                  00016d5a    00000006                                       : osal_port.obj (.text:osalHeapFreeFxn)
                  00016d60    00000006     ti_sysbios_config.obj (.text:ti_sysbios_family_arm_m3_Hwi_destruct)
                  00016d66    00000006     ti_sysbios_config.obj (.text:ti_sysbios_family_arm_m3_Hwi_doTaskRestore)
                  00016d6c    00000006     ti_sysbios_config.obj (.text:ti_sysbios_family_arm_m3_Hwi_restore)
                  00016d72    00000006     ti_sysbios_config.obj (.text:ti_sysbios_family_arm_m3_Hwi_setFunc)
                  00016d78    00000006     ti_sysbios_config.obj (.text:ti_sysbios_gates_GateMutexPri_Params_init)
                  00016d7e    00000006     ti_sysbios_config.obj (.text:ti_sysbios_heaps_HeapCallback_alloc)
                  00016d84    00000006     ti_sysbios_config.obj (.text:ti_sysbios_heaps_HeapCallback_free)
                  00016d8a    00000006     ti_sysbios_config.obj (.text:ti_sysbios_heaps_HeapCallback_getStats)
                  00016d90    00000006     ti_sysbios_config.obj (.text:ti_sysbios_heaps_HeapCallback_isBlocking)
                  00016d96    00000006     ti_sysbios_config.obj (.text:ti_sysbios_knl_Clock_stop)
                  00016d9c    00000006     ti_sysbios_config.obj (.text:ti_sysbios_knl_Queue_Instance_init)
                  00016da2    00000006     ti_sysbios_config.obj (.text:ti_sysbios_knl_Queue_elemClear)
                  00016da8    00000006     ti_sysbios_config.obj (.text:ti_sysbios_knl_Semaphore_Instance_finalize)
                  00016dae    00000006     ti_sysbios_config.obj (.text:ti_sysbios_knl_Swi_startup)
                  00016db4    00000006     ti_sysbios_config.obj (.text:ti_sysbios_knl_Task_enable)
                  00016dba    00000004     api_mac.obj (.text:ApiMac_mcpsDataReq)
                  00016dbe    00000004     api_mac.obj (.text:ApiMac_mlmeSetSecurityReqStruct)
                  00016dc2    00000004     ti_sysbios_config.obj (.text:ClockP_destruct)
                  00016dc6    00000004     ti_sysbios_config.obj (.text:ClockP_getCpuFreq)
                  00016dca    00000004     ti_sysbios_config.obj (.text:ClockP_getSystemTickPeriod)
                  00016dce    00000004     ti_sysbios_config.obj (.text:ClockP_getTimeout)
                  00016dd2    00000004     ti_sysbios_config.obj (.text:ClockP_isActive)
                  00016dd6    00000004     ti_sysbios_config.obj (.text:ClockP_setTimeout)
                  00016dda    00000004     ti_sysbios_config.obj (.text:ClockP_start)
                  00016dde    00000004     ti_sysbios_config.obj (.text:ClockP_stop)
                  00016de2    00000004     ti_sysbios_config.obj (.text:HwiP_destruct)
                  00016de6    00000004     ti_sysbios_config.obj (.text:HwiP_enableInterrupt)
                  00016dea    00000004     ti_sysbios_config.obj (.text:HwiP_post)
                  00016dee    00000004     ti_sysbios_config.obj (.text:HwiP_setPriority)
                  00016df2    00000004     rf_multiMode_cc26x2.a : rfc.c.cc26x2.ccs.o (.text:NOROM_RFCOverrideUpdate)
                  00016df6    00000004                           : RFCC26X2_multiMode.c.cc26x2.ccs.o (.text:RF_defaultExecutionPolicy)
                  00016dfa    00000004     ti_sysbios_config.obj (.text:SemaphoreP_destruct)
                  00016dfe    00000004     ti_sysbios_config.obj (.text:SemaphoreP_post)
                  00016e02    00000004     ti_sysbios_config.obj (.text:SwiP_destruct)
                  00016e06    00000004     ti_sysbios_config.obj (.text:SwiP_disable)
                  00016e0a    00000004     ti_sysbios_config.obj (.text:SwiP_getTrigger)
                  00016e0e    00000004     ti_sysbios_config.obj (.text:SwiP_or)
                  00016e12    00000004     ti_sysbios_config.obj (.text:SystemP_vsnprintf)
                  00016e16    00000004     maclib_osal_tirtos7_cc13x2_26x2.a : util_timer.obj (.text:UtilTimer_isActive)
                  00016e1a    00000004                                       : util_timer.obj (.text:UtilTimer_start)
                  00016e1e    00000004                                       : util_timer.obj (.text:UtilTimer_stop)
                  00016e22    00000004                                       : mac_util.obj (.text:Util_loUint16)
                  00016e26    00000004     drivers_cc26x2.a : PowerCC26X2.oem4f (.text:configureRFCoreClocks)
                  00016e2a    00000004     maclib_secure_cc26x2_2_4g_tirtos7.a : mac_hl_patch.obj (.text:macPibCheckByPatch)
                  00016e2e    00000004                                         : mac_radio.obj (.text:macRadioComputeLQI)
                  00016e32    00000004                                         : mac_hl_patch.obj (.text:macRxBackoffHandler)
                  00016e36    00000004                                         : mac_symbol_timer.obj (.text:macSymbolTimerPwrNotify$24)
                  00016e3a    00000004     drivers_cc26x2.a : PowerCC26X2.oem4f (.text:nopResourceHandler)
                  00016e3e    00000004     maclib_osal_tirtos7_cc13x2_26x2.a : osal_port.obj (.text:osalHeapIsBlockingFxn)
                  00016e42    00000004     ti_sysbios_config.obj (.text:ti_sysbios_family_arm_cc26xx_Timer_setPeriod)
                  00016e46    00000004     ti_sysbios_config.obj (.text:ti_sysbios_heaps_HeapCallback_defaultCreate)
                  00016e4a    00000004     ti_sysbios_config.obj (.text:ti_sysbios_knl_Clock_isActive)
                  00016e4e    00000004     ti_sysbios_config.obj (.text:ti_sysbios_knl_Clock_removeI)
                  00016e52    00000004     ti_sysbios_config.obj (.text:ti_sysbios_knl_Clock_setTimeout)
                  00016e56    00000004     ti_sysbios_config.obj (.text:ti_sysbios_knl_Queue_construct)
                  00016e5a    00000004     ti_sysbios_config.obj (.text:ti_sysbios_knl_Queue_head)
                  00016e5e    00000004     ti_sysbios_config.obj (.text:ti_sysbios_knl_Queue_next)
                  00016e62    00000004     ti_sysbios_config.obj (.text:ti_sysbios_knl_Queue_prev)
                  00016e66    00000004     ti_sysbios_config.obj (.text:ti_sysbios_knl_Swi_postInit)
                  00016e6a    00000004     ti_sysbios_config.obj (.text:ti_sysbios_knl_TaskSupport_getStackAlignment)
                  00016e6e    00000004     ti_sysbios_config.obj (.text:ti_sysbios_knl_Task_getPri)
                  00016e72    00000004     ti_sysbios_config.obj (.text:ti_sysbios_runtime_Error_check)
                  00016e76    00000004     ti_sysbios_config.obj (.text:ti_sysbios_runtime_Memory_getMaxDefaultTypeAlign)
                  00016e7a    00000004     ti_sysbios_config.obj (.text:ti_sysbios_runtime_SysCallback_defaultReady)
                  00016e7e    00000004     ti_sysbios_config.obj (.text:ti_sysbios_runtime_System_printf_va)
                  00016e82    00000002     --HOLE-- [fill = 0]
                  00016e84    00000008     (.tramp.MAC_McpsDataReq.1)
                  00016e8c    00000008     (.tramp.MAC_MlmeSetReq.1)
                  00016e94    00000008     (.tramp.MAC_MlmeDisassociateReq.1)
                  00016e9c    00000008     (.tramp.MAC_MlmeStartReq.1)
                  00016ea4    00000008     (.tramp.MAC_MlmeOrphanRsp.1)
                  00016eac    00000008     (.tramp.MAC_MlmeSetSecurityReq.1)
                  00016eb4    00000008     (.tramp.MAC_MlmeAssociateRsp.1)
                  00016ebc    00000008     (.tramp.macMainSetTaskId.1)
                  00016ec4    00000008     (.tramp.MAC_MlmeResetReq.1)

.TI.bound:flashBuf0 
*          0    0004e000    00008000     UNINITIALIZED
                  0004e000    00008000     ti_drivers_config.obj (.TI.bound:flashBuf0)

.ccfg      0    00057fa8    00000058     
                  00057fa8    00000058     ti_devices_config.obj (.ccfg:retain)

.data:RAM_MAC_BASE_ADDR 
*          0    2000010c    00000010     UNINITIALIZED
                  2000010c    00000010     maclib_secure_cc26x2_2_4g_tirtos7.a : rom_init_154.obj (.data:RAM_MAC_BASE_ADDR)

.TI.bound:dmaUart1RxControlTableEntry 
*          0    20001850    00000010     UNINITIALIZED
                  20001850    00000010     ti_drivers_config.obj (.TI.bound:dmaUart1RxControlTableEntry)

.TI.bound:dmaUart1TxControlTableEntry 
*          0    20001860    00000010     UNINITIALIZED
                  20001860    00000010     ti_drivers_config.obj (.TI.bound:dmaUart1TxControlTableEntry)

.data      0    20001870    00002bc1     UNINITIALIZED
                  20001870    000008b4     macTask.obj (.data:$O12$$)
                  20002124    000006cc     main.obj (.data:$O10$$)
                  200027f0    00000588     cui.obj (.data:$O8$$)
                  20002d78    00000508     rf_multiMode_cc26x2.a : RFCC26X2_multiMode.c.cc26x2.ccs.o (.data:$O1$$)
                  20003280    00000338     cllc.obj (.data:$O6$$)
                  200035b8    00000290     ti_sysbios_config.obj (.data:$O1$$)
                  20003848    000001b0     csf.obj (.data:$O4$$)
                  200039f8    0000018c     maclib_osal_tirtos7_cc13x2_26x2.a : osal_port.obj (.data:$O25$$)
                  20003b84    00000170     drivers_cc26x2.a : PowerCC26X2.oem4f (.data:PowerCC26X2_module)
                  20003cf4    000000f8     mac_settings.obj (.data:$O13$$)
                  20003dec    000000c4     collector.obj (.data:$O3$$)
                  20003eb0    0000007c     ti_drivers_config.obj (.data:gpioPinConfigs)
                  20003f2c    00000078     nvocmp.obj (.data:$O14$$)
                  20003fa4    0000006c     maclib_secure_cc26x2_2_4g_tirtos7.a : hmac_global.obj (.data:fhObject)
                  20004010    00000060     ti_radio_config.obj (.data:$O1$$)
                  20004070    00000058     csf.obj (.data:appSubMenu)
                  200040c8    00000048     maclib_secure_cc26x2_2_4g_tirtos7.a : mac.obj (.data:$O16$$)
                  20004110    00000040     csf.obj (.data:commissionSubMenu)
                  20004150    00000040     csf.obj (.data:configureSubMenu)
                  20004190    00000040     csf.obj (.data:csfMainMenu)
                  200041d0    0000003c     maclib_secure_cc26x2_2_4g_tirtos7.a : mac_radio.obj (.data:$O19$$)
                  2000420c    00000034     api_mac.obj (.data:$O11$$)
                  20004240    00000034     maclib_secure_cc26x2_2_4g_tirtos7.a : hmac_global.obj (.data:macBeaconPayload)
                  20004274    00000030                                         : hmac_global.obj (.data)
                  200042a4    00000028                                         : mac_symbol_timer.obj (.data:$O22$$)
                  200042cc    00000024                                         : mac_tx.obj (.data:$O23$$)
                  200042f0    00000024     driverlib.lib : osc.obj (.data:$O27$$)
                  20004314    00000024     maclib_secure_cc26x2_2_4g_tirtos7.a : hmac_global.obj (.data:macActionSet)
                  20004338    00000020     drivers_cc26x2.a : TRNGCC26XX.oem4f (.data:entropyPoolBuffer)
                  20004358    00000020     mac_cfg.obj (.data:macBeaconMargin)
                  20004378    00000018     drivers_cc26x2.a : PowerCC26X2.oem4f (.data:PowerCC26X2_hposcRtcCompNotifyObj)
                  20004390    00000014     maclib_secure_cc26x2_2_4g_tirtos7.a : hmac_global.obj (.data:macStateTbl)
                  200043a4    00000010     maclib_osal_tirtos7_cc13x2_26x2.a : osal_port_timers.obj (.data:$O26$$)
                  200043b4    00000010     mac_cfg.obj (.data:macCfg)
                  200043c4    00000010     ti_radio_config.obj (.data:pOverrides_ieee154)
                  200043d4    0000000c     maclib_secure_cc26x2_2_4g_tirtos7.a : mac_hl_patch.obj (.data:$O15$$)
                  200043e0    00000009                                         : mac.obj (.data)
                  200043e9    00000002     drivers_cc26x2.a : CryptoResourceCC26XX.oem4f (.data)
                  200043eb    00000001                      : AESCCMCC26XX.oem4f (.data)
                  200043ec    00000008     maclib_secure_cc26x2_2_4g_tirtos7.a : mac_radio_tx.obj (.data:$O24$$)
                  200043f4    00000008     rtsv7M4_T_le_v4SPD16_eabi.lib : _lock.c.obj (.data:$O30$$)
                  200043fc    00000008     rf_multiMode_cc26x2.a : RFCC26X2_multiMode.c.cc26x2.ccs.o (.data:RFCC26XX_schedulerPolicy)
                  20004404    00000008     drivers_cc26x2.a : TRNGCC26XX.oem4f (.data:jobList)
                  2000440c    00000005                      : TemperatureCC26X2.oem4f (.data)
                  20004411    00000002                      : TRNGCC26XX.oem4f (.data)
                  20004413    00000001                      : GPIOCC26XX.oem4f (.data)
                  20004414    00000004     maclib_secure_cc26x2_2_4g_tirtos7.a : mac_autopend.obj (.data:$O17$$)
                  20004418    00000004     maclib_osal_tirtos7_cc13x2_26x2.a : osal_port.obj (.data)
                  2000441c    00000004     maclib_secure_cc26x2_2_4g_tirtos7.a : lmac_global.obj (.data)
                  20004420    00000004                                         : mac_tx.obj (.data)
                  20004424    00000004     rtsv7M4_T_le_v4SPD16_eabi.lib : errno.c.obj (.data)
                  20004428    00000004                                   : stkdepth_vars.c.obj (.data)
                  2000442c    00000001     drivers_cc26x2.a : NVS.oem4f (.data)
                  2000442d    00000001                      : PWM.oem4f (.data)
                  2000442e    00000001     maclib_secure_cc26x2_2_4g_tirtos7.a : mac_sleep.obj (.data)
                  2000442f    00000001     rf_multiMode_cc26x2.a : rf_patch_cpe_ieee_802_15_4.c.cc26x2.ccs.o (.data)
                  20004430    00000001     ti_sysbios_config.obj (.data)

.bss       0    20004438    00000f51     UNINITIALIZED
                  20004438    00000200     (.common:ti_sysbios_knl_Idle_taskStack)
                  20004638    000001f8     (.common:uart2CC26X2Objects)
                  20004830    00000100     maclib_secure_cc26x2_2_4g_tirtos7.a : mac_radio.obj (.bss:RF_object$21)
                  20004930    000000fc     (.common:enhancedAckBuf)
                  20004a2c    000000d8     (.common:ti_sysbios_family_arm_m3_Hwi_dispatchTable)
                  20004b04    000000b8     (.common:LEDObjects)
                  20004bbc    00000088     (.common:macPib)
                  20004c44    0000007c     (.common:gpioCallbackFunctions)
                  20004cc0    0000007c     (.common:gpioUserArgs)
                  20004d3c    00000054     (.common:macScan)
                  20004d90    00000050     (.common:CryptoResourceCC26XX_accessSemaphore)
                  20004de0    00000050     (.common:CryptoResourceCC26XX_operationSemaphore)
                  20004e30    0000004c     (.common:cuiMultiMenuData)
                  20004e7c    00000048     (.common:ButtonObjects)
                  20004ec4    00000040     (.common:macSecurityPib)
                  20004f04    0000003c     (.common:macBeaconCoord)
                  20004f40    00000038     (.common:macDeviceAction1)
                  20004f78    00000034     (.common:macBeaconDevice)
                  20004fac    00000030     (.common:macMgmtAction1)
                  20004fdc    00000030     (.common:macSrcExtAddrList)
                  2000500c    00000030     (.common:ti_sysbios_knl_Swi_readyQs)
                  2000503c    00000030     (.common:ti_sysbios_knl_Task_readyQs)
                  2000506c    0000002c     (.common:macCoord)
                  20005098    0000002c     (.common:macDevice)
                  200050c4    00000024                                         : mac_rx.obj (.bss:$O20$$)
                  200050e8    00000020                                         : mac_low_level.obj (.bss:$O18$$)
                  20005108    00000020     ti_drivers_config.obj (.bss:uart2RxRingBuffer0)
                  20005128    00000020     ti_drivers_config.obj (.bss:uart2TxRingBuffer0)
                  20005148    00000020     (.common:macBeacon)
                  20005168    00000020     (.common:udmaCC26XXObject)
                  20005188    0000001c     drivers_cc26x2.a : TRNGCC26XX.oem4f (.bss:TRNGCC26XX_hwi)
                  200051a4    0000001c                      : TemperatureCC26X2.oem4f (.bss:batmonHwi)
                  200051c0    0000001c                      : TRNGCC26XX.oem4f (.bss:entropyPool)
                  200051dc    0000001c                      : GPIOCC26XX.oem4f (.bss:gpioHwi)
                  200051f8    0000001c     (.common:CryptoResourceCC26XX_hwi)
                  20005214    0000001c     (.common:macCoordAction2)
                  20005230    0000001c     (.common:macReset)
                  2000524c    0000001c     (.common:macSrcShortAddrList)
                  20005268    00000018     (.common:aesccmCC26XXObjects)
                  20005280    00000018     (.common:macScanAction)
                  20005298    00000014     rf_multiMode_cc26x2.a : RFCC26X2_multiMode.c.cc26x2.ccs.o (.bss:RF_ratSyncCmd)
                  200052ac    00000014     drivers_cc26x2.a : Random.oem4f (.bss:state)
                  200052c0    00000014     (.common:macDeviceAction2)
                  200052d4    00000014     (.common:macMgmtAction2)
                  200052e8    00000010     (.common:macBeaconDeviceAction)
                  200052f8    00000010     (.common:macCoordAction3)
                  20005308    00000010     (.common:macData)
                  20005318    00000010     (.common:macDataTxDelay)
                  20005328    0000000c                      : NVSCC26XX.oem4f (.bss)
                  20005334    0000000c     (.common:macMain)
                  20005340    00000008                      : TemperatureCC26X2.oem4f (.bss:notificationList)
                  20005348    00000008     (.common:macBeaconCoordAction1)
                  20005350    00000008     (.common:macCoordAction1)
                  20005358    00000004     (.common:AESCCM_handle)
                  2000535c    00000004     (.common:macCryptoDrvTblPtr)
                  20005360    00000004     (.common:macRxSymbol)
                  20005364    00000004     (.common:macTimerActive)
                  20005368    00000004     (.common:nvsCC26XXObjects)
                  2000536c    00000004     (.common:ti_sysbios_runtime_System_atexitHandlers)
                  20005370    00000004     (.common:timerAlignedQ)
                  20005374    00000004     (.common:timerUnalignedQ)
                  20005378    00000001     maclib_secure_cc26x2_2_4g_tirtos7.a : mac_tx.obj (.bss)
                  20005379    00000001     rf_multiMode_cc26x2.a : RFCC26X2_multiMode.c.cc26x2.ccs.o (.bss)
                  2000537a    00000001     (.common:lastRxPriority)
                  2000537b    00000001     (.common:lastTxPriority)
                  2000537c    00000001     (.common:macAckTxActive)
                  2000537d    00000001     (.common:macMgmt)
                  2000537e    00000001     (.common:macPanCoordinator)
                  2000537f    00000001     (.common:macPhyChannel)
                  20005380    00000001     (.common:macPwr)
                  20005381    00000001     (.common:macRxActive)
                  20005382    00000001     (.common:macRxEnableFlags)
                  20005383    00000001     (.common:macRxOutgoingAckFlag)
                  20005384    00000001     (.common:macSymbolTimerImpending)
                  20005385    00000001     (.common:macTaskId)
                  20005386    00000001     (.common:macTxActive)
                  20005387    00000001     (.common:macUnitBackoffPeriod)
                  20005388    00000001     (.common:rxFhRsl)

.vtable    0    20005389    00000000     UNINITIALIZED

.vtable_ram 
*          0    20005389    00000000     UNINITIALIZED

vtable_ram 
*          0    20005389    00000000     UNINITIALIZED

.sysmem    0    20005389    00000000     UNINITIALIZED

.nonretenvar 
*          0    20005389    00000000     UNINITIALIZED

.stack     0    20013aa0    00000560     UNINITIALIZED
                  20013aa0    00000560     --HOLE--

.args      0    00016ecc    00000008     
                  00016ecc    00000008     --HOLE-- [fill = 0]

.text.3    0    00056000    00001fa8     
                  00056000    00000850     maclib_secure_cc26x2_2_4g_tirtos7.a : mac.obj (.text:macRxCbIeee$17)
                  00056850    000004c0     rf_multiMode_cc26x2.a : RFCC26X2_multiMode.c.cc26x2.ccs.o (.text:RF_fsmActiveState)
                  00056d10    0000047c     macTask.obj (.text:macTaskFxn$9)
                  0005718c    00000008     (.tramp.MAC_Init.1)
                  00057194    00000008     (.tramp.MAC_InitCoord.1)
                  0005719c    00000008     (.tramp.macExecute.1)
                  000571a4    00000008     (.tramp.mac_msg_deallocate.1)
                  000571ac    00000008     (.tramp.macCommStatusInd.1)
                  000571b4    00000444     main.obj (.text:appTaskFxn)
                  000575f8    00000008     (.tramp.MAC_MlmeGetReq.1)
                  00057600    0000043c     nvocmp.obj (.text:NVOCMP_initNv$15)
                  00057a3c    00000438     maclib_secure_cc26x2_2_4g_tirtos7.a : mac_hl_patch.obj (.text:macWrapperAddDevice)
                  00057e74    00000130     rtsv7M4_T_le_v4SPD16_eabi.lib : strtol.c.obj (.text:strtol)
                  00057fa4    00000004     api_mac.obj (.text:ApiMac_mlmeGetReqUint16)

MODULE SUMMARY

       Module                                      code    ro data   rw data
       ------                                      ----    -------   -------
    .\application\
       main.obj                                    1360    8         1740   
    +--+-------------------------------------------+-------+---------+---------+
       Total:                                      1360    8         1740   
                                                                            
    .\application\collector\
       csf.obj                                     6412    24        712    
       collector.obj                               3942    0         196    
    +--+-------------------------------------------+-------+---------+---------+
       Total:                                      10354   24        908    
                                                                            
    .\application\collector\link_controller\
       cllc.obj                                    2052    154       824    
    +--+-------------------------------------------+-------+---------+---------+
       Total:                                      2052    154       824    
                                                                            
    .\application\cui\
       cui.obj                                     1754    36        1416   
    +--+-------------------------------------------+-------+---------+---------+
       Total:                                      1754    36        1416   
                                                                            
    .\software_stack\ti15_4stack\mac\
       macTask.obj                                 1464    19        2228   
       api_mac.obj                                 1610    0         52     
    +--+-------------------------------------------+-------+---------+---------+
       Total:                                      3074    19        2280   
                                                                            
    .\software_stack\ti15_4stack\mac\mac_settings\
       mac_user_config.obj                         448     208       0      
       mac_cfg.obj                                 0       472       48     
       mac_settings.obj                            0       0         248    
    +--+-------------------------------------------+-------+---------+---------+
       Total:                                      448     680       296    
                                                                            
    .\software_stack\ti15_4stack\nv\
       nvocmp.obj                                  6384    0         120    
       crc.obj                                     32      256       0      
    +--+-------------------------------------------+-------+---------+---------+
       Total:                                      6416    256       120    
                                                                            
    .\syscfg\
       ti_drivers_config.obj                       258     263       34056  
       ti_sysbios_config.obj                       9622    3108      1701   
       ti_radio_config.obj                         0       184       112    
       ti_devices_config.obj                       0       88        0      
    +--+-------------------------------------------+-------+---------+---------+
       Total:                                      9880    3643      35869  
                                                                            
    C:\Users\mariana\AppData\Local\Temp\
       {7E9F3D82-52FB-4554-9B0D-1369743CF4EE}      0       392       1275   
    +--+-------------------------------------------+-------+---------+---------+
       Total:                                      0       392       1275   
                                                                            
    C:/ti/simplelink_cc13xx_cc26xx_sdk_5_40_00_40/kernel/tirtos7/packages/ti/sysbios/lib/ccs/m4f/sysbios.a
       Hwi_asm.obj                                 322     0         0      
       auto_init.obj                               160     0         0      
       Hwi_asm_switch.obj                          118     0         0      
       boot.obj                                    88      0         0      
       TaskSupport_asm.obj                         44      0         0      
    +--+-------------------------------------------+-------+---------+---------+
       Total:                                      732     0         0      
                                                                            
    C:/ti/simplelink_cc13xx_cc26xx_sdk_5_40_00_40/source/ti/devices/cc13x2_cc26x2/driverlib/bin/ccs/driverlib.lib
       osc.obj                                     1720    336       36     
       setup.obj                                   452     0         0      
       sys_ctrl.obj                                396     0         0      
       aes.obj                                     272     0         0      
       chipinfo.obj                                224     0         0      
       prcm.obj                                    160     0         0      
       flash.obj                                   56      0         0      
       cpu.obj                                     30      0         0      
       aux_sysif.obj                               0       8         0      
    +--+-------------------------------------------+-------+---------+---------+
       Total:                                      3310    344       36     
                                                                            
    C:/ti/simplelink_cc13xx_cc26xx_sdk_5_40_00_40/source/ti/drivers/lib/ccs/m4f/drivers_cc26x2.a
       PowerCC26X2.oem4f                           2288    84        392    
       UART2CC26X2.oem4f                           2638    21        0      
       UART2.oem4f                                 1570    36        0      
       PowerCC26X2_calibrateRCOSC.oem4f            1400    0         0      
       TRNGCC26XX.oem4f                            1074    0         98     
       NVSCC26XX.oem4f                             986     40        12     
       TemperatureCC26X2.oem4f                     760     0         41     
       Button.oem4f                                746     20        0      
       AESCCMCC26XX.oem4f                          752     0         1      
       LED.oem4f                                   704     8         0      
       GPIOCC26XX.oem4f                            572     0         29     
       Random.oem4f                                176     144       20     
       RingBuf.oem4f                               296     0         0      
       CryptoResourceCC26XX.oem4f                  98      0         190    
       List.oem4f                                  210     0         0      
       PWM.oem4f                                   182     24        1      
       StructRingBuf.oem4f                         194     0         0      
       UDMACC26XX.oem4f                            168     0         0      
       NVS.oem4f                                   160     4         1      
       GPIO.oem4f                                  84      0         0      
       CryptoUtils.oem4f                           62      0         0      
       AESCCM.oem4f                                40      16        0      
       CryptoKeyPlaintextCC26XX.oem4f              28      0         0      
       TRNG.oem4f                                  0       20        0      
    +--+-------------------------------------------+-------+---------+---------+
       Total:                                      15188   417       785    
                                                                            
    C:/ti/simplelink_cc13xx_cc26xx_sdk_5_40_00_40/source/ti/drivers/rf/lib/ccs/m4f/rf_multiMode_cc26x2.a
       RFCC26X2_multiMode.c.cc26x2.ccs.o           10690   32        1317   
       rf_patch_cpe_ieee_802_15_4.c.cc26x2.ccs.o   74      360       1      
       rfc.c.cc26x2.ccs.o                          302     0         0      
    +--+-------------------------------------------+-------+---------+---------+
       Total:                                      11066   392       1318   
                                                                            
    C:/ti/simplelink_cc13xx_cc26xx_sdk_5_40_00_40/source/ti/ti154stack/lib/ccs/m4f/maclib_osal_tirtos7_cc13x2_26x2.a
       osal_port.obj                               1540    0         400    
       mac_util.obj                                94      0         0      
       util_timer.obj                              84      0         0      
       osal_port_timers.obj                        0       0         16     
    +--+-------------------------------------------+-------+---------+---------+
       Total:                                      1718    0         416    
                                                                            
    C:/ti/simplelink_cc13xx_cc26xx_sdk_5_40_00_40/source/ti/ti154stack/lib/ccs/m4f/maclib_secure_cc26x2_2_4g_tirtos7.a
       mac_hl_patch.obj                            9182    0         12     
       mac.obj                                     3952    0         81     
       mac_radio.obj                               1896    0         316    
       mac_tx.obj                                  1764    0         41     
       mac_timer.obj                               1484    0         0      
       hmac_rom_init.obj                           0       1384      0      
       mac_radio_tx.obj                            1336    0         8      
       hmac_global.obj                             0       817       264    
       mac_rx.obj                                  856     8         36     
       mac_pwr.obj                                 882     0         0      
       mac_autopend.obj                            654     0         4      
       mac_symbol_timer.obj                        568     0         40     
       mac_rx_onoff.obj                            504     0         0      
       mac_low_level.obj                           360     0         32     
       mac_mcu.obj                                 368     0         0      
       lmac_rom_init.obj                           0       204       0      
       saddr.obj                                   112     0         0      
       icall_osal_rom_init.obj                     0       108       0      
       mac_sleep.obj                               88      0         1      
       rom_init_154.obj                            0       0         16     
       lmac_global.obj                             0       0         4      
    +--+-------------------------------------------+-------+---------+---------+
       Total:                                      24006   2521      855    
                                                                            
    C:\ti\ccs1110\ccs\tools\compiler\ti-cgt-arm_20.2.5.LTS\lib\rtsv7M4_T_le_v4SPD16_eabi.lib
       strtol.c.obj                                304     0         0      
       ctype.c.obj                                 0       257       0      
       memcpy_t2.asm.obj                           156     0         0      
       ull_div_t2.asm.obj                          150     0         0      
       memset_t2.asm.obj                           122     0         0      
       ll_div_t2.asm.obj                           110     0         0      
       copy_decompress_lzss.c.obj                  104     0         0      
       atoi.c.obj                                  76      0         0      
       cpy_tbl.c.obj                               76      0         0      
       u_divt2.asm.obj                             64      0         0      
       strncpy.c.obj                               52      0         0      
       strncat.c.obj                               38      0         0      
       memcmp.c.obj                                36      0         0      
       _lock.c.obj                                 26      0         8      
       ll_asr_t2.asm.obj                           30      0         0      
       args_main.c.obj                             24      0         0      
       ll_mul_t2.asm.obj                           24      0         0      
       strlen.c.obj                                20      0         0      
       copy_decompress_none.c.obj                  14      0         0      
       copy_zero_init.c.obj                        12      0         0      
       errno.c.obj                                 8       0         4      
       stkdepth_vars.c.obj                         0       0         4      
       div0.asm.obj                                2       0         0      
    +--+-------------------------------------------+-------+---------+---------+
       Total:                                      1448    257       16     
                                                                            
       Stack:                                      0       0         1376   
       Linker Generated:                           120     809       0      
    +--+-------------------------------------------+-------+---------+---------+
       Grand Total:                                92926   9952      49530  


LINKER GENERATED COPY TABLES

__TI_cinit_table @ 000171e0 records: 5, size/record: 8, table size: 40
	.data: load addr=00016ed8, load size=000002d5 bytes, run addr=20001870, run size=00002bc1 bytes, compression=lzss
	.TI.bound:dmaUart1RxControlTableEntry: load addr=000171c0, load size=00000008 bytes, run addr=20001850, run size=00000010 bytes, compression=zero_init
	.TI.bound:dmaUart1TxControlTableEntry: load addr=000171c8, load size=00000008 bytes, run addr=20001860, run size=00000010 bytes, compression=zero_init
	.bss: load addr=000171d0, load size=00000008 bytes, run addr=20004438, run size=00000f51 bytes, compression=zero_init
	.data:RAM_MAC_BASE_ADDR: load addr=000171d8, load size=00000008 bytes, run addr=2000010c, run size=00000010 bytes, compression=zero_init


LINKER GENERATED HANDLER TABLE

__TI_handler_table @ 000171b0 records: 3, size/record: 4, table size: 12
	index: 0, handler: __TI_decompress_lzss
	index: 1, handler: __TI_decompress_none
	index: 2, handler: __TI_zero_init


FAR CALL TRAMPOLINES

callee name               trampoline name
   callee addr  tramp addr   call addr  call info
--------------  -----------  ---------  ----------------
MAC_McpsDataReq           $Tramp$TT$L$PI$$MAC_McpsDataReq
   10036729     00016e84     00016dba   api_mac.obj (.text:ApiMac_mcpsDataReq)
MAC_MlmeSetReq            $Tramp$TT$L$PI$$MAC_MlmeSetReq
   10039ec5     00016e8c     00016994   api_mac.obj (.text:ApiMac_mlmeSetReqBool)
                             000169a2   api_mac.obj (.text:ApiMac_mlmeSetReqUint16)
                             000169b0   api_mac.obj (.text:ApiMac_mlmeSetReqUint8)
                             00016ca0   api_mac.obj (.text:ApiMac_mlmeSetReqArray)
MAC_MlmeDisassociateReq   $Tramp$TT$L$PI$$MAC_MlmeDisassociateReq
   10039dc1     00016e94     00012a88   cllc.obj (.text:Cllc_sendDisassociationRequest)
MAC_MlmeStartReq          $Tramp$TT$L$PI$$MAC_MlmeStartReq
   100364e1     00016e9c     000101a4   cllc.obj (.text:sendStartReq$5)
MAC_MlmeOrphanRsp         $Tramp$TT$L$PI$$MAC_MlmeOrphanRsp
   1003648d     00016ea4     000100b4   cllc.obj (.text:orphanIndCb$5)
MAC_MlmeSetSecurityReq    $Tramp$TT$L$PI$$MAC_MlmeSetSecurityReq
   1003a99d     00016eac     0000e784   cllc.obj (.text:Cllc_securityInit)
                             0000e798   cllc.obj (.text:Cllc_securityInit)
                             00016dbe   api_mac.obj (.text:ApiMac_mlmeSetSecurityReqStruct)
MAC_MlmeAssociateRsp      $Tramp$TT$L$PI$$MAC_MlmeAssociateRsp
   10036471     00016eb4     0000c0f6   cllc.obj (.text:assocIndCb$5)
macMainSetTaskId          $Tramp$TT$L$PI$$macMainSetTaskId
   100388e1     00016ebc     0000a42e   main.obj (.text:main)
MAC_MlmeResetReq          $Tramp$TT$L$PI$$MAC_MlmeResetReq
   100391c9     00016ec4     00007584   collector.obj (.text:Collector_init)
MAC_Init                  $Tramp$TT$L$PI$$MAC_Init
   100399cd     0005718c     00056d80   macTask.obj (.text:macTaskFxn$9)
MAC_InitCoord             $Tramp$TT$L$PI$$MAC_InitCoord
   1003624d     00057194     00056d84   macTask.obj (.text:macTaskFxn$9)
macExecute                $Tramp$TT$L$PI$$macExecute
   1003871d     0005719c     00056e30   macTask.obj (.text:macTaskFxn$9)
                             00056e44   macTask.obj (.text:macTaskFxn$9)
                             00056e58   macTask.obj (.text:macTaskFxn$9)
                             00056e6c   macTask.obj (.text:macTaskFxn$9)
                             00056e80   macTask.obj (.text:macTaskFxn$9)
                             00056e98   macTask.obj (.text:macTaskFxn$9)
                             00056eb0   macTask.obj (.text:macTaskFxn$9)
                             00056ec8   macTask.obj (.text:macTaskFxn$9)
                             00056ee0   macTask.obj (.text:macTaskFxn$9)
                             00056ef8   macTask.obj (.text:macTaskFxn$9)
                             00056f10   macTask.obj (.text:macTaskFxn$9)
                             00056f28   macTask.obj (.text:macTaskFxn$9)
                             00056f90   macTask.obj (.text:macTaskFxn$9)
                             000570d2   macTask.obj (.text:macTaskFxn$9)
                             00057164   macTask.obj (.text:macTaskFxn$9)
mac_msg_deallocate        $Tramp$TT$L$PI$$mac_msg_deallocate
   100387f9     000571a4     00056f9c   macTask.obj (.text:macTaskFxn$9)
                             000570de   macTask.obj (.text:macTaskFxn$9)
                             0005715a   macTask.obj (.text:macTaskFxn$9)
                             0005717c   macTask.obj (.text:macTaskFxn$9)
                             000093ee   macTask.obj (.text:MAC_CbackEvent)
macCommStatusInd          $Tramp$TT$L$PI$$macCommStatusInd
   100393ed     000571ac     0005714c   macTask.obj (.text:macTaskFxn$9)
MAC_MlmeGetReq            $Tramp$TT$L$PI$$MAC_MlmeGetReq
   1003a169     000575f8     000574ae   main.obj (.text:appTaskFxn)
                             000574be   main.obj (.text:appTaskFxn)
                             00057fa4   api_mac.obj (.text:ApiMac_mlmeGetReqUint16)

[15 trampolines]
[40 trampoline calls]


GLOBAL SYMBOLS: SORTED ALPHABETICALLY BY Name 

address   name                                                            
-------   ----                                                            
00016c95  AESCCM_Operation_init                                           
000167dd  AESCCM_Params_init                                              
00016a51  AESCCM_close                                                    
00002318  AESCCM_config                                                   
00011965  AESCCM_construct                                                
000021be  AESCCM_count                                                    
00002224  AESCCM_defaultParams                                            
20005358  AESCCM_handle                                                   
00016415  AESCCM_init                                                     
00016cf5  AESCCM_oneStepDecrypt                                           
00016cfb  AESCCM_oneStepEncrypt                                           
000167ed  AESCCM_open                                                     
00013c91  ApiMac_convertCapabilityInfo                                    
2000421c  ApiMac_extAddr                                                  
00016dbb  ApiMac_mcpsDataReq                                              
00057fa5  ApiMac_mlmeGetReqUint16                                         
00016c9d  ApiMac_mlmeSetReqArray                                          
0001698d  ApiMac_mlmeSetReqBool                                           
0001699b  ApiMac_mlmeSetReqUint16                                         
000169a9  ApiMac_mlmeSetReqUint8                                          
00016dbf  ApiMac_mlmeSetSecurityReqStruct                                 
20001873  AppTaskId                                                       
20003684  BIOS_Module_state                                               
000142e1  BIOS_atExitFunc                                                 
00001ab7  BIOS_clockEnabled                                               
000167fd  BIOS_exit                                                       
00016321  BIOS_exitFunc                                                   
0001680d  BIOS_getCpuFreq                                                 
20003624  BIOS_heapCallbackObject                                         
00001ab8  BIOS_heapSize                                                   
00014cc1  BIOS_init                                                       
00016a5d  BIOS_linkedWithIncorrectBootLibrary                             
0000277f  BIOS_nullFunc                                                   
000150ed  BIOS_registerRTSLock                                            
00015469  BIOS_removeRTSLock                                              
20003640  BIOS_rtsGate                                                    
00014ce9  BIOS_rtsLock                                                    
00015489  BIOS_rtsUnlock                                                  
00001ab4  BIOS_runtimeCreatesEnabled                                      
00016429  BIOS_setThreadType                                              
0001681d  BIOS_start                                                      
00012a0d  BIOS_startFunc                                                  
00001ab6  BIOS_swiEnabled                                                 
00001ab5  BIOS_taskEnabled                                                
00014fe1  Board_init                                                      
00007237  Board_initHook                                                  
00011861  Board_sendExtFlashByte                                          
000119b9  Board_shutDownExtFlash                                          
00014311  Board_wakeUpExtFlash                                            
0000b3b1  Boot_trimDevice                                                 
20004e7c  ButtonObjects                                                   
0001643d  Button_Params_init                                              
00002244  Button_config                                                   
000021cd  Button_count                                                    
000021d4  Button_defaultParams                                            
00010835  Button_gpioCallbackFxn                                          
0000a1d5  Button_init                                                     
0000b14d  Button_open                                                     
00016d01  Button_setCallback                                              
000021bd  CONFIG_AESCCM_0_CONST                                           
000021cb  CONFIG_BTN_LEFT_CONST                                           
000021cc  CONFIG_BTN_RIGHT_CONST                                          
000021c9  CONFIG_DISPLAY_UART_CONST                                       
000021c5  CONFIG_GPIO_BTN1_CONST                                          
000021c6  CONFIG_GPIO_BTN2_CONST                                          
000021c2  CONFIG_GPIO_DISPLAY_UART_RX_CONST                               
000021c1  CONFIG_GPIO_DISPLAY_UART_TX_CONST                               
000021c4  CONFIG_GPIO_GLED_CONST                                          
000021c3  CONFIG_GPIO_RLED_CONST                                          
000021cf  CONFIG_LED_GREEN_CONST                                          
000021ce  CONFIG_LED_RED_CONST                                            
000021c7  CONFIG_NVSINTERNAL_CONST                                        
000095e9  CUI_init                                                        
00016451  CUI_menuActionBack                                              
000096f9  CUI_menuActionHelp                                              
00016d07  CUI_paramsInit                                                  
00008bf1  CUI_statusLinePrintf                                            
00009a1d  CUI_statusLineResourceRequest                                   
00011a0d  Cllc_addSecDevice                                               
20003360  Cllc_associatedDevList                                          
20003286  Cllc_devShortAddr                                               
20003284  Cllc_events                                                     
000159cd  Cllc_findDevice                                                 
00016a69  Cllc_getChanMask                                                
0001682d  Cllc_getDefaultKey                                              
00014341  Cllc_getFormingPanId                                            
0000cf59  Cllc_init                                                       
00001b3d  Cllc_keySource                                                  
0000b479  Cllc_removeDevice                                               
0000eb55  Cllc_restoreNetwork                                             
000159e9  Cllc_securityFill                                               
0000e735  Cllc_securityInit                                               
00012a51  Cllc_sendDisassociationRequest                                  
00015a05  Cllc_setChanMask                                                
000137f9  Cllc_setJoinPermit                                              
200032d8  Cllc_statistics                                                 
00016c31  ClockP_Params_init                                              
00013d69  ClockP_construct                                                
00013831  ClockP_create                                                   
00016a75  ClockP_delete                                                   
00016dc3  ClockP_destruct                                                 
00016dc7  ClockP_getCpuFreq                                               
00016dcb  ClockP_getSystemTickPeriod                                      
00016249  ClockP_getSystemTicks                                           
00016dcf  ClockP_getTimeout                                               
00016dd3  ClockP_isActive                                                 
00016dd7  ClockP_setTimeout                                               
00016ddb  ClockP_start                                                    
00016ddf  ClockP_stop                                                     
20003df2  Collector_events                                                
00007511  Collector_init                                                  
20003e68  Collector_macCallbacks                                          
0000a735  Collector_sendConfigRequest                                     
00013869  Collector_sendDeviceTypeRequest                                 
000138a1  Collector_sendToggleLedRequest                                  
20003e2c  Collector_statistics                                            
000169b7  CryptoKeyPlaintext_initBlankKey                                 
000169c5  CryptoKeyPlaintext_initKey                                      
20004d90  CryptoResourceCC26XX_accessSemaphore                            
00010c7d  CryptoResourceCC26XX_constructRTOSObjects                       
200051f8  CryptoResourceCC26XX_hwi                                        
20004de0  CryptoResourceCC26XX_operationSemaphore                         
200043e9  CryptoResourceCC26XX_pollingFlag                                
000132c5  CryptoUtils_buffersMatch                                        
00008d11  Csf_deviceUpdate                                                
20003850  Csf_events                                                      
0000f50d  Csf_getDevice                                                   
00010289  Csf_getDeviceExtAdd                                             
0000e0d5  Csf_getDeviceItem                                               
000147f1  Csf_getDeviceShort                                              
00012dc5  Csf_getNetworkInformation                                       
00012549  Csf_getNumDeviceListEntries                                     
00002781  Csf_init                                                        
20003880  Csf_keys                                                        
0000236d  Csf_processEvents                                               
0000fde5  Csf_sendDisassociateMsg                                         
00014371  Csf_setConfigClock                                              
00013d9d  Csf_setTrackingClock                                            
0000d865  Csf_updateFrameCounter                                          
000021bc  Display_count                                                   
10030ad1  FHAPI_SFDRxCb                                                   
10030501  FHAPI_completeRxCb                                              
1003035d  FHAPI_completeTxCb                                              
10030bad  FHAPI_getBitCount                                               
10030a81  FHAPI_getRemDT                                                  
10030b81  FHAPI_getTxChHoppingFunc                                        
10030a21  FHAPI_getTxParams                                               
100308d1  FHAPI_getTxParams_old                                           
10030809  FHAPI_reset                                                     
10030689  FHAPI_sendData                                                  
10030b51  FHAPI_setStateCb                                                
10030101  FHAPI_start                                                     
10030989  FHAPI_startBS                                                   
10030b11  FHAPI_stopAsync                                                 
10030cb5  FHDATA_CheckMinTxOffTime                                        
10031011  FHDATA_asyncMinTxOffTimerCb                                     
10031029  FHDATA_checkPktFromQueue                                        
10030fb5  FHDATA_chkASYNCStartReq                                         
10030f65  FHDATA_getASYNCDelay                                            
10030d61  FHDATA_getPktFromQueue                                          
10030bd1  FHDATA_procASYNCReq                                             
1003103d  FHDATA_procEDFEReq                                              
10030e89  FHDATA_purgePktFromQueue                                        
10030e05  FHDATA_purgeUnSupportedFrameTypes                               
10030efd  FHDATA_requeuePkt                                               
10031051  FHDATA_startEDFEReq                                             
10031065  FHDATA_startEDFETimer                                           
10030fed  FHDATA_updateCCA                                                
10031129  FHDH1CF_getBCChannelNum                                         
100312f5  FHDH1CF_getBcCh                                                 
10031209  FHDH1CF_getCh                                                   
1003125d  FHDH1CF_getChannelNum                                           
100312b1  FHDH1CF_getTxChannelNum                                         
10031069  FHDH1CF_hashword                                                
100311ad  FHDH1CF_mapChIdxChannel                                         
1003230d  FHIE_extractHie                                                 
1003197d  FHIE_extractPie                                                 
10032905  FHIE_gen                                                        
1003248d  FHIE_genBTIE                                                    
10031fed  FHIE_genCommonInformation                                       
10032689  FHIE_genExcludedChannelMask                                     
100323cd  FHIE_genExcludedChannelRanges                                   
10031d91  FHIE_genHie                                                     
1003210d  FHIE_genPie                                                     
10031325  FHIE_genPieContent                                              
10032755  FHIE_genUTIE                                                    
10032519  FHIE_getCcaSfdTime                                              
100326f1  FHIE_getChannelPlan                                             
100327b1  FHIE_getCommonInformationLen                                    
10032859  FHIE_getExcludedChannelControl                                  
10032939  FHIE_getHie                                                     
10032619  FHIE_getHieLen                                                  
1003296d  FHIE_getLen                                                     
100328cf  FHIE_getPie                                                     
1003220d  FHIE_getPieContentLen                                           
10032599  FHIE_getPieLen                                                  
10032895  FHIE_getSubPie                                                  
10032805  FHIE_isChannelPlanValid                                         
10031ba9  FHIE_parseCommonInformation                                     
10031ec9  FHIE_parseHie                                                   
10031699  FHIE_parsePie                                                   
10032cf5  FHMGR_BCTimerEventUpd                                           
1003299d  FHMGR_bcTimerIsrCb                                              
10032d11  FHMGR_macCancelFHTimer                                          
10032d29  FHMGR_macGetElapsedFHTime                                       
10032c1d  FHMGR_macStartFHTimer                                           
10032cc9  FHMGR_macStartOneShotTimer                                      
10032d41  FHMGR_pendBcChUpdate                                            
10032d47  FHMGR_pendUcChUpdate                                            
10032bb5  FHMGR_ucTimerIsrCb                                              
10032c75  FHMGR_updateHopping                                             
10032b45  FHMGR_updateRadioBCChannel                                      
10032acd  FHMGR_updateRadioUCChannel                                      
10033119  FHNT_AddDeviceCB                                                
100337b1  FHNT_DelDeviceCB                                                
1003374d  FHNT_addOptEntry                                                
10033381  FHNT_addTempEUI                                                 
10033aa9  FHNT_assessTime                                                 
10033209  FHNT_createEntry                                                
100332c5  FHNT_createFixedEntry                                           
10033969  FHNT_getAvailEntry                                              
100339f9  FHNT_getEUI                                                     
10032fe1  FHNT_getEntry                                                   
100335f5  FHNT_getFixedEntry                                              
100338c1  FHNT_getFixedNTIndexFromTempIndex                               
10033671  FHNT_getNTIndexFromTempIndex                                    
100336e5  FHNT_getOptEntry                                                
100334c5  FHNT_getRemoveEntry                                             
10032ea1  FHNT_getRemoveEntryFromTemp                                     
1003355d  FHNT_getRemoveFixedEntry                                        
10033a75  FHNT_init                                                       
10033429  FHNT_initTempTable                                              
10032d4d  FHNT_purgeEntry                                                 
10033a3d  FHNT_purgeTimerIsrCb                                            
10033915  FHNT_putEntry                                                   
100339b1  FHNT_putFixedEntry                                              
10033811  FHNT_reset                                                      
10033ca5  FHPIB_get                                                       
10033d25  FHPIB_getIndex                                                  
10033cf5  FHPIB_getLen                                                    
10033d41  FHPIB_reset                                                     
10033ac9  FHPIB_set                                                       
10033d59  FHSM_event                                                      
10033dcd  FHUTIL_adjBackOffDur                                            
100343fd  FHUTIL_assert                                                   
10034411  FHUTIL_calcUfsi                                                 
100343e5  FHUTIL_compBfioTxTime                                           
1003441b  FHUTIL_elapsedTime                                              
10033f09  FHUTIL_getBcTxParams                                            
100341c1  FHUTIL_getBitCounts                                             
100342a9  FHUTIL_getCh0                                                   
10034219  FHUTIL_getChannelSpacing                                        
100340cd  FHUTIL_getCurBfio                                               
10034261  FHUTIL_getCurUfsi                                               
100343c9  FHUTIL_getElapsedTime                                           
10034149  FHUTIL_getGuardTime                                             
100342e1  FHUTIL_getMaxChannels                                           
1003404d  FHUTIL_getTxChannel                                             
10034319  FHUTIL_getTxUfsi                                                
100343a1  FHUTIL_getUcChannel                                             
1003441f  FHUTIL_noAction                                                 
10034349  FHUTIL_updateBcNumChannels                                      
10034375  FHUTIL_updateUcNumChannels                                      
10033fc9  FHUTIl_updateBTIE                                               
10033d9d  FSM_transaction_debug                                           
00002254  GPIO_config                                                     
00015ea1  GPIO_disableInt                                                 
00011dfd  GPIO_hwiIntFxn                                                  
0000a1d5  GPIO_init                                                       
000021bf  GPIO_pinLowerBound                                              
000021c0  GPIO_pinUpperBound                                              
00015a21  GPIO_read                                                       
00014905  GPIO_resetConfig                                                
00015eb9  GPIO_setCallback                                                
0000fe51  GPIO_setConfig                                                  
00014931  GPIO_setInterruptConfig                                         
00014d39  GPIO_setMux                                                     
0001683d  GPIO_setUserArg                                                 
0001684d  GPIO_write                                                      
20003a18  HEAPMGR_SIZE                                                    
00000b80  HMAC_ROM_Flash_JT                                               
0001685d  HwiP_Params_init                                                
000138d9  HwiP_construct                                                  
00016de3  HwiP_destruct                                                   
00016a81  HwiP_disable                                                    
00016de7  HwiP_enableInterrupt                                            
00016337  HwiP_interruptsEnabled                                          
00016deb  HwiP_post                                                       
00016d6d  HwiP_restore                                                    
0001634d  HwiP_setFunc                                                    
00016def  HwiP_setPriority                                                
00001dec  ICALL_OSAL_ROM_Flash_JT                                         
UNDEFED   ITM_flush                                                       
UNDEFED   ITM_restore                                                     
20004b04  LEDObjects                                                      
0001675d  LED_Params_init                                                 
00002264  LED_config                                                      
000021d0  LED_count                                                       
00002320  LED_defaultParams                                               
00009809  LED_open                                                        
00013303  LED_setBrightnessLevel                                          
00013475  LED_setOff                                                      
00013cc7  LED_setOn                                                       
000118b7  LED_startBlinking                                               
000153e1  LED_stopBlinking                                                
00015d69  LED_toggle                                                      
00001824  LMAC_ROM_Flash_JT                                               
00016465  List_clearList                                                  
00015403  List_get                                                        
00014bc5  List_insert                                                     
00015007  List_put                                                        
0001502d  List_putHead                                                    
00015053  List_remove                                                     
00016479  MAC_CbackCheckPending                                           
000093c1  MAC_CbackEvent                                                  
0001648d  MAC_CbackQueryRetransmit                                        
10039cbd  MAC_EnableFH                                                    
1003a1b9  MAC_GetPHYParamReq                                              
100399cd  MAC_Init                                                        
10034849  MAC_InitBeaconCoord                                             
10035159  MAC_InitBeaconDevice                                            
1003624d  MAC_InitCoord                                                   
10037c45  MAC_InitDevice                                                  
10038e15  MAC_InitFH                                                      
10036e05  MAC_McpsDataAlloc                                               
10036729  MAC_McpsDataReq                                                 
10036455  MAC_McpsPurgeReq                                                
10037ea5  MAC_MlmeAssociateReq                                            
10036471  MAC_MlmeAssociateRsp                                            
10039dc1  MAC_MlmeDisassociateReq                                         
10039ce1  MAC_MlmeFHGetReq                                                
10039d01  MAC_MlmeFHGetReqSize                                            
10039d21  MAC_MlmeFHSetReq                                                
1003b159  MAC_MlmeGetPointerSecurityReq                                   
1003a169  MAC_MlmeGetReq                                                  
1003a275  MAC_MlmeGetReqSize                                              
1003af09  MAC_MlmeGetSecurityReq                                          
1003b101  MAC_MlmeGetSecurityReqSize                                      
1003648d  MAC_MlmeOrphanRsp                                               
10037ebd  MAC_MlmePollReq                                                 
100391c9  MAC_MlmeResetReq                                                
0000ae01  MAC_MlmeScanReq                                                 
10039ec5  MAC_MlmeSetReq                                                  
1003a99d  MAC_MlmeSetSecurityReq                                          
100364e1  MAC_MlmeStartReq                                                
10039ddd  MAC_MlmeSyncReq                                                 
10039df5  MAC_MlmeWSAsyncReq                                              
00016a8d  MAC_PwrMode                                                     
00012a95  MAC_PwrNextTimeout                                              
0000b789  MAC_PwrOffReq                                                   
000134b1  MAC_PwrOnReq                                                    
10039e55  MAC_RandomByte                                                  
0000db49  MAC_ResumeReq                                                   
1003a1f9  MAC_SetPHYParamReq                                              
000154e9  MAC_SrcMatchAckAllPending                                       
0000b53d  MAC_SrcMatchAddEntry                                            
000164a1  MAC_SrcMatchCheckAllPending                                     
00014bef  MAC_SrcMatchDeleteEntry                                         
0000e15d  MAC_SrcMatchEnable                                              
10039d41  MAC_StartFH                                                     
10039c69  MAC_YieldReq                                                    
00015ed1  Main_assertHandler                                              
20002125  Main_assertReason                                               
00016d0d  Main_excHandler                                                 
20002194  Main_user1Cfg                                                   
00013dd1  NOROM_AESStartDMAOperation                                      
0000a811  NOROM_AESWriteToKeyStore                                        
00016a99  NOROM_CPUcpsid                                                  
00016aa5  NOROM_CPUcpsie                                                  
00016d13  NOROM_CPUdelay                                                  
00015a3d  NOROM_ChipInfo_GetChipFamily                                    
0000ebd5  NOROM_ChipInfo_GetChipType                                      
00012ad9  NOROM_ChipInfo_GetHwRevision                                    
00015a59  NOROM_FlashProgram                                              
00015a75  NOROM_FlashSectorErase                                          
0000e1e5  NOROM_OSCHF_AttemptToSwitchToXosc                               
000102f1  NOROM_OSCHF_SwitchToRcOscTurnOffXosc                            
00015111  NOROM_OSCHF_TurnOnXosc                                          
0000d4d5  NOROM_OSC_HPOSCInitializeFrequencyOffsetParameters              
00012e05  NOROM_OSC_HPOSCRelativeFrequencyOffsetGet                       
00010359  NOROM_OSC_HPOSCRtcCompensate                                    
00011a61  NOROM_PRCMPowerDomainsAllOff                                    
00012205  NOROM_PRCMPowerDomainsAllOn                                     
0000f8a9  NOROM_RFCAnaDivTxOverride                                       
000164b5  NOROM_RFCCpeIntGetAndClear                                      
0000b07b  NOROM_RFCCpePatchReset                                          
00015135  NOROM_RFCDoorbellSendTo                                         
0001686d  NOROM_RFCHwIntGetAndClear                                       
00014d61  NOROM_RFCOverrideSearch                                         
00016df3  NOROM_RFCOverrideUpdate                                         
00012591  NOROM_RFCSynthPowerDown                                         
0000b3b1  NOROM_SetupTrimDevice                                           
00013e05  NOROM_SysCtrlIdle                                               
00007935  NOROM_SysCtrlStandby                                            
20003f5c  NVOCMP_nvHandle                                                 
20003f2f  NVOCMP_size                                                     
00016ca5  NVSCC26XX_close                                                 
00016d19  NVSCC26XX_control                                               
000143d1  NVSCC26XX_erase                                                 
00002080  NVSCC26XX_fxnTable                                              
00015ac9  NVSCC26XX_getAttrs                                              
00011b09  NVSCC26XX_init                                                  
00015ae5  NVSCC26XX_lock                                                  
0000ec55  NVSCC26XX_open                                                  
00012b1d  NVSCC26XX_read                                                  
00016abd  NVSCC26XX_unlock                                                
000084bd  NVSCC26XX_write                                                 
000022d4  NVS_config                                                      
000021c8  NVS_count                                                       
00002364  NVS_defaultParams                                               
00016c3b  NVS_erase                                                       
00016c45  NVS_getAttrs                                                    
00014989  NVS_init                                                        
00012621  NVS_open                                                        
00016c4f  NVS_read                                                        
000169d3  NVS_write                                                       
00015829  OsalPort_buildUint32                                            
000108fd  OsalPort_clearEvent                                             
00015d83  OsalPort_enterCS                                                
00012e45  OsalPort_free                                                   
00016363  OsalPort_leaveCS                                                
0000de19  OsalPort_malloc                                                 
00015529  OsalPort_memcmp                                                 
00015425  OsalPort_msgAllocate                                            
00015549  OsalPort_msgDeallocate                                          
0001481f  OsalPort_msgDequeue                                             
0001484d  OsalPort_msgEnqueue                                             
00013341  OsalPort_msgEnqueueMax                                          
00014249  OsalPort_msgExtract                                             
00015f19  OsalPort_msgPush                                                
00011099  OsalPort_msgReceive                                             
0001229d  OsalPort_msgSend                                                
00010961  OsalPort_pwrmgrTaskState                                        
00010429  OsalPort_registerTask                                           
000110f5  OsalPort_setEvent                                               
0000ecd5  OsalPort_setTimer                                               
00016ad5  OsalPort_stopTimer                                              
UNDEFED   PIN_hwi_bypass                                                  
000164c9  PWM_Params_init                                                 
00016c59  PWM_close                                                       
UNDEFED   PWM_config                                                      
UNDEFED   PWM_count                                                       
0000218c  PWM_defaultParams                                               
00012b61  PWM_init                                                        
00012e85  PWM_open                                                        
00016c63  PWM_setDuty                                                     
00016c6d  PWM_start                                                       
00012669  PowerCC26X2_RCOSC_clockFunc                                     
0000f5f5  PowerCC26X2_auxISR                                              
000164dd  PowerCC26X2_calibrate                                           
000021e8  PowerCC26X2_config                                              
00013949  PowerCC26X2_enableHposcRtcCompensation                          
000115f9  PowerCC26X2_initiateCalibration                                 
20003b84  PowerCC26X2_module                                              
00015d9d  PowerCC26XX_calibrate                                           
00012ec5  PowerCC26XX_isStableXOSC_HF                                     
00015f31  PowerCC26XX_schedulerDisable                                    
00015f49  PowerCC26XX_schedulerRestore                                    
0000bfa5  PowerCC26XX_standbyPolicy                                       
200035c0  PowerCC26XX_swiKey                                              
000126b1  PowerCC26XX_switchXOSC_HF                                       
200035bc  PowerCC26XX_taskKey                                             
00016ae1  Power_getConstraintMask                                         
00016aed  Power_getDependencyCount                                        
00015847  Power_getTransitionLatency                                      
00015f61  Power_idleFunc                                                  
00007239  Power_init                                                      
00014dd9  Power_registerNotify                                            
00014401  Power_releaseConstraint                                         
0000b909  Power_releaseDependency                                         
00014431  Power_setConstraint                                             
0000bd7d  Power_setDependency                                             
00006475  Power_sleep                                                     
00015569  Power_unregisterNotify                                          
2000010c  RAM_MAC_BASE_ADDR                                               
000022e0  RFCC26XX_hwAttrs                                                
200043fc  RFCC26XX_schedulerPolicy                                        
000164f1  RF_Params_init                                                  
00016505  RF_RatConfigCompare_init                                        
00016cad  RF_RatConfigOutput_init                                         
00015b01  RF_ScheduleCmdParams_init                                       
00011651  RF_TxPowerTable_findValue                                       
00015f79  RF_cancelCmd                                                    
00008e31  RF_close                                                        
20003d28  RF_cmdFsRx                                                      
20003d40  RF_cmdFsTx                                                      
0000191c  RF_cmdFs_ieee154                                                
20003d90  RF_cmdIEEECsma                                                  
20003db0  RF_cmdIEEERx                                                    
20003d58  RF_cmdIEEETx                                                    
0000194c  RF_cmdIeeeCsma_ieee154                                          
000018f0  RF_cmdIeeeRxAck_ieee154                                         
0000196c  RF_cmdIeeeRx_ieee154                                            
00001934  RF_cmdIeeeTx_ieee154                                            
20003cf4  RF_cmdNop                                                       
20003d04  RF_cmdNopFg                                                     
20003d70  RF_cmdRadioSetup                                                
00001904  RF_cmdRadioSetup_ieee154                                        
20003d14  RF_cmdRxAckCmd                                                  
0000a655  RF_control                                                      
00016df7  RF_defaultExecutionPolicy                                       
0001190d  RF_defaultSubmitPolicy                                          
000126f9  RF_enableHPOSCTemperatureCompensation                           
0001652d  RF_flushCmd                                                     
0001676f  RF_getCmdOp                                                     
0000f989  RF_getCurrentTime                                               
0000dc69  RF_getInfo                                                      
00015b55  RF_getRssi                                                      
0000e2f5  RF_getTxPower                                                   
200041e0  RF_handle                                                       
00003801  RF_open                                                         
200041ec  RF_params                                                       
0000a9c9  RF_pendCmd                                                      
00016af9  RF_powerConstraintGet                                           
00013e6d  RF_powerConstraintRelease                                       
00015b71  RF_powerConstraintSet                                           
20004010  RF_prop_ieee154                                                 
00016541  RF_ratCompare                                                   
0000f669  RF_ratDisableChannel                                            
0000cc39  RF_requestAccess                                                
00016d25  RF_runDirectCmd                                                 
00016d2b  RF_runImmediateCmd                                              
00004abd  RF_scheduleCmd                                                  
00015609  RF_setTxPower                                                   
0000f6dd  RF_yield                                                        
00012f45  Random_getNumber                                                
0000f9f9  Random_seedAutomatic                                            
00011759  ResetISR                                                        
00016781  RingBuf_construct                                               
00013ed5  RingBuf_getConsume                                              
00014c43  RingBuf_getPointer                                              
000128f1  RingBuf_put                                                     
0001337f  RingBuf_putAdvance                                              
00013f09  RingBuf_putPointer                                              
UNDEFED   SHT$$INIT_ARRAY$$Base                                           
UNDEFED   SHT$$INIT_ARRAY$$Limit                                          
00016cb5  SemaphoreP_Params_init                                          
00014461  SemaphoreP_construct                                            
00015629  SemaphoreP_constructBinary                                      
000151a1  SemaphoreP_createBinary                                         
00016b05  SemaphoreP_delete                                               
00016dfb  SemaphoreP_destruct                                             
00016793  SemaphoreP_pend                                                 
00016dff  SemaphoreP_post                                                 
00016569  StructRingBuf_construct                                         
00012335  StructRingBuf_get                                               
000169ef  StructRingBuf_isFull                                            
00011bb1  StructRingBuf_put                                               
0001689d  SwiP_Params_init                                                
00012937  SwiP_construct                                                  
00016e03  SwiP_destruct                                                   
00016e07  SwiP_disable                                                    
00016e0b  SwiP_getTrigger                                                 
00016e0f  SwiP_or                                                         
00013bb1  SwiP_restore                                                    
000168ad  SwiP_setPriority                                                
00015db7  SystemP_snprintf                                                
00016e13  SystemP_vsnprintf                                               
0001657d  TRNG_close                                                      
0000d12d  TRNG_construct                                                  
000021fc  TRNG_defaultParams                                              
000144f1  TRNG_generateEntropy                                            
000144f1  TRNG_generateKey                                                
000116a9  TRNG_init                                                       
00001823  TemperatureCC26X2_config                                        
00016591  Temperature_getTemperature                                      
0000fa69  Temperature_init                                                
00011eed  Temperature_registerNotifyRange                                 
00014521  Temperature_unregisterNotify                                    
00015865  UART2Support_disableRx                                          
00016b11  UART2Support_disableTx                                          
00011f3d  UART2Support_dmaRefreshRx                                       
0000a2bd  UART2Support_dmaStartRx                                         
0000c3c9  UART2Support_dmaStartTx                                         
000109c5  UART2Support_dmaStopRx                                          
0000ff29  UART2Support_dmaStopTx                                          
000148a9  UART2Support_enableInts                                         
00016b1d  UART2Support_enableRx                                           
00016b29  UART2Support_enableTx                                           
00016d31  UART2Support_powerRelConstraint                                 
00016d37  UART2Support_powerSetConstraint                                 
000168dd  UART2Support_rxStatus2ErrorCode                                 
000139b9  UART2Support_sendData                                           
000168ed  UART2Support_txDone                                             
00015fc1  UART2_Params_init                                               
0000ccd9  UART2_close                                                     
00002328  UART2_config                                                    
000021ca  UART2_count                                                     
000020f0  UART2_defaultParams                                             
00005875  UART2_open                                                      
00015649  UART2_read                                                      
000111ad  UART2_readCancel                                                
00012fc5  UART2_readFull                                                  
00004ed5  UART2_readTimeout                                               
00013cfd  UART2_rxDisable                                                 
000139f1  UART2_rxEnable                                                  
000169fd  UART2_write                                                     
00011545  UART2_writeCancel                                               
00003a99  UART2_writeTimeout                                              
00013d33  UDMACC26XX_close                                                
00002330  UDMACC26XX_config                                               
00016c77  UDMACC26XX_hwiIntFxn                                            
00012381  UDMACC26XX_open                                                 
00013005  UtilTimer_construct                                             
00016e17  UtilTimer_isActive                                              
00016cbd  UtilTimer_setTimeout                                            
00016e1b  UtilTimer_start                                                 
00016e1f  UtilTimer_stop                                                  
00016cc5  Util_breakUint32                                                
00016ccd  Util_buildUint16                                                
00016a0b  Util_buildUint32                                                
0001638f  Util_clearEvent                                                 
00016c81  Util_copyExtAddr                                                
00016d3d  Util_hiUint16                                                   
00016e23  Util_loUint16                                                   
000163a5  Util_setEvent                                                   
20014000  __STACK_END                                                     
00000560  __STACK_SIZE                                                    
20014000  __STACK_TOP                                                     
000171e0  __TI_CINIT_Base                                                 
00017208  __TI_CINIT_Limit                                                
000171b0  __TI_Handler_Table_Base                                         
000171bc  __TI_Handler_Table_Limit                                        
0000ceb9  __TI_auto_init                                                  
000104f9  __TI_decompress_lzss                                            
00016a19  __TI_decompress_none                                            
ffffffff  __TI_pprof_out_hndl                                             
ffffffff  __TI_prof_data_size                                             
ffffffff  __TI_prof_data_start                                            
00000000  __TI_static_base__                                              
00016b4d  __TI_zero_init                                                  
00016cd5  __aeabi_errno_addr                                              
0000fde3  __aeabi_idiv0                                                   
00015937  __aeabi_lasr                                                    
0000fde3  __aeabi_ldiv0                                                   
0000fd05  __aeabi_ldivmod                                                 
000161b9  __aeabi_lmul                                                    
0000f1c1  __aeabi_memclr                                                  
0000f1c1  __aeabi_memclr4                                                 
0000f1c1  __aeabi_memclr8                                                 
0000d39d  __aeabi_memcpy                                                  
0000d39d  __aeabi_memcpy4                                                 
0000d39d  __aeabi_memcpy8                                                 
0000f1c3  __aeabi_memset                                                  
0000f1c3  __aeabi_memset4                                                 
0000f1c3  __aeabi_memset8                                                 
00013185  __aeabi_uidiv                                                   
00013185  __aeabi_uidivmod                                                
0000d7cd  __aeabi_uldivmod                                                
ffffffff  __binit__                                                       
00016ecc  __c_args__                                                      
00057fa8  __ccfg                                                          
20013aa0  __stack                                                         
00015fd9  _args_main                                                      
00011759  _c_int00                                                        
00001528  _ctypes_                                                        
200042f0  _hposcCoeffs                                                    
200043f4  _lock                                                           
0000db47  _nop                                                            
00016b35  _register_lock                                                  
00016b41  _register_unlock                                                
00013c59  _system_post_cinit                                              
0000b3b1  _system_pre_init                                                
200043f8  _unlock                                                         
000021d1  aesccmCC26XXHWAttrs                                             
20005268  aesccmCC26XXObjects                                             
20004214  appEvents                                                       
20004224  appSem                                                          
20004070  appSubMenu                                                      
2000213c  appTask                                                         
000571b5  appTaskFxn                                                      
2000420c  appTaskId                                                       
00016d43  assertHandler                                                   
000123cd  atoi                                                            
2000441d  bInSwi                                                          
ffffffff  binit                                                           
200050e8  coexMetricsStruct                                               
20003898  collectorStatusLine                                             
20004110  commissionSubMenu                                               
20004150  configureSubMenu                                                
00010fdd  convertTxOptions                                                
00015dd1  copyApiMacAddrToMacAddr                                         
00012419  copy_in                                                         
00015669  crc_update                                                      
20003894  csfCuiHndl                                                      
20004190  csfMainMenu                                                     
20004298  csmPhy                                                          
20002820  cuiMultiMenu                                                    
20004e30  cuiMultiMenuData                                                
2000389c  deviceStatusLine                                                
20004930  enhancedAckBuf                                                  
20004424  errno                                                           
20003fa4  fhObject                                                        
20003f2e  gAction                                                         
20004c44  gpioCallbackFunctions                                           
20003eb0  gpioPinConfigs                                                  
20004cc0  gpioUserArgs                                                    
20013aa0  heapEnd                                                         
20005389  heapStart                                                       
20003a0c  heapmgrMemFreeError                                             
20003a08  heapmgrMemFreeTotal                                             
00013c59  iar_startup_exec                                                
0000b3b1  iar_startup_reset                                               
200040c8  ieeeCoexEnabled                                                 
200040d0  lastPostCmd                                                     
200043e0  lastRatChanA                                                    
200043e1  lastRatChanB                                                    
2000537a  lastRxPriority                                                  
2000537b  lastTxPriority                                                  
200042dc  macAckDbg                                                       
2000537c  macAckTxActive                                                  
20004314  macActionSet                                                    
10036ba1  macAllocTxBuffer                                                
10037699  macApiAssociateReq                                              
10036399  macApiAssociateRsp                                              
10039e0d  macApiBadState                                                  
0000c475  macApiBeaconStartReq                                            
10036ef5  macApiDataReq                                                   
10039955  macApiDisassociateReq                                           
100360fd  macApiOrphanRsp                                                 
10039b81  macApiPending                                                   
10037ab9  macApiPollReq                                                   
10035eb1  macApiPurgeReq                                                  
0000f50b  macApiPwrOnReq                                                  
1003a2ad  macApiScanReq                                                   
0000b601  macApiStartReq                                                  
10034bcd  macApiSyncReq                                                   
10039e25  macApiUnsupported                                               
10039a99  macApiWSAsyncReq                                                
10037c99  macAssocDataReq                                                 
10037b25  macAssocDataReqComplete                                         
1003792d  macAssocDataRxInd                                               
10037ced  macAssocFailed                                                  
10037db5  macAssocFrameResponseTimeout                                    
10037e85  macAssocRxDisassoc                                              
10037d79  macAssociateCnf                                                 
00001bb0  macAssociatingSt                                                
00002310  macAuthTagLen                                                   
0000d735  macAutoPendAddSrcMatchTableEntry                                
10036fc5  macAutoPendMaintainSrcMatchTable                                
0000bc05  macAutoPoll                                                     
10039e69  macBcTimerHandler                                               
20005148  macBeacon                                                       
10034a25  macBeaconBattLifeCallback                                       
100355dd  macBeaconCheckSched                                             
10034715  macBeaconCheckStartTime                                         
0000c5cd  macBeaconCheckTxTime                                            
10034921  macBeaconClearIndirect                                          
20004f04  macBeaconCoord                                                  
20005348  macBeaconCoordAction1                                           
10034a01  macBeaconCoordReset                                             
20004f78  macBeaconDevice                                                 
200052e8  macBeaconDeviceAction                                           
10035575  macBeaconInit                                                   
20004358  macBeaconMargin                                                 
20004240  macBeaconPayload                                                
1003495d  macBeaconPeriodCallback                                         
100346a1  macBeaconPrepareCallback                                        
10035535  macBeaconRequeue                                                
100355a9  macBeaconReset                                                  
100348e1  macBeaconSchedRequested                                         
100349d5  macBeaconSetPrepareTime                                         
10035369  macBeaconSetSched                                               
100347ed  macBeaconSetupBroadcast                                         
10035421  macBeaconSetupCap                                               
10034545  macBeaconStartContinue                                          
10035229  macBeaconStartFrameResponseTimer                                
10035289  macBeaconStopTrack                                              
10035065  macBeaconSyncLoss                                               
10034781  macBeaconTxCallback                                             
0000cd79  macBlacklistChecking                                            
10035355  macBroadcastPendCallback                                        
10037549  macBuildAssociateReq                                            
1003560d  macBuildAssociateRsp                                            
1003576d  macBuildBeacon                                                  
100394f1  macBuildBeaconNotifyInd                                         
10038c1d  macBuildCommonReq                                               
00008865  macBuildDataFrame                                               
10038f61  macBuildDisassociateReq                                         
100388f1  macBuildHeader                                                  
0000a8ed  macBuildHeaderIes                                               
100380d9  macBuildPayloadCoexistIe                                        
10037ee9  macBuildPayloadIes                                              
10035bb5  macBuildPendAddr                                                
10035d4d  macBuildRealign                                                 
10039855  macBuildWSAsyncMsg                                              
100392e1  macBuildWSAsyncReq                                              
00011701  macCanSleep                                                     
000022bc  macCbackEventTbl                                                
100385f1  macCbackForEvent                                                
0000dcf9  macCcmDecrypt                                                   
0000df31  macCcmEncrypt                                                   
0000c90d  macCcmStarInverseTransform                                      
0000aaa1  macCcmStarTransform                                             
200043b4  macCfg                                                          
10037361  macCheckIndPacket                                               
100350ed  macCheckPendAddr                                                
00015deb  macCheckPhyMode                                                 
00013f3d  macCheckPhyRate                                                 
100374e1  macCheckSched                                                   
00002284  macCmdBufSize                                                   
00002048  macCmdIncludeFHIe                                               
000022ec  macCmdLen                                                       
100393ed  macCommStatusInd                                                
10039c95  macConflictSyncLossInd                                          
2000506c  macCoord                                                        
20005350  macCoordAction1                                                 
20005214  macCoordAction2                                                 
200052f8  macCoordAction3                                                 
10039bc1  macCoordAddrCmp                                                 
10039a41  macCoordDestAddrCmp                                             
10035c85  macCoordReset                                                   
00001fc8  macCryptoDriverTable                                            
2000535c  macCryptoDrvTblPtr                                              
200042d8  macCsmaRtcTimerId                                               
20005308  macData                                                         
20004294  macDataBeaconRequeue                                            
2000428c  macDataCheckSched                                               
20004290  macDataCheckTxTime                                              
2000427c  macDataRequeueIndirect                                          
10037279  macDataReset                                                    
20004280  macDataRxBeaconCritical                                         
100373b9  macDataRxInd                                                    
10037455  macDataRxMemAlloc                                               
10037515  macDataRxMemFree                                                
100374c1  macDataSend                                                     
20004288  macDataSetSched                                                 
20004284  macDataTxBeaconComplete                                         
0000c10d  macDataTxComplete                                               
20005318  macDataTxDelay                                                  
10037529  macDataTxDelayCallback                                          
1003712d  macDataTxEnqueue                                                
20004278  macDataTxIndirect                                               
100368cd  macDataTxSend                                                   
100374fd  macDataTxTimeAvailable                                          
10039d61  macDefaultAction                                                
10039ae9  macDestAddrCmp                                                  
10039b35  macDestSAddrCmp                                                 
20005098  macDevice                                                       
20004f40  macDeviceAction1                                                
200052c0  macDeviceAction2                                                
0001297d  macDeviceDescriptorLookup                                       
100377a1  macDeviceReset                                                  
100397c9  macDisassocComplete                                             
0000ab79  macEdScanISR                                                    
1003871d  macExecute                                                      
10037479  macFrameDuration                                                
1003749d  macFrameDurationIeee                                            
100372f5  macFrameDurationSubG                                            
20004100  macFrmFilter                                                    
200043e4  macFsCmdActive                                                  
10039eb9  macGetCSMPhy                                                    
10039c35  macGetCoordAddress                                              
1003bb81  macGetEUI                                                       
1003ba75  macGetEUIIndex                                                  
10039d81  macGetMyAddrMode                                                
0000bcc1  macGetRFCmdDuration                                             
00015689  macGetRadioState                                                
00010d9d  macGetRadioTxPowerReg                                           
1003a29d  macIEEEGetPhyDesc                                               
00002274  macIEEEPhyTable                                                 
00001c22  macIdleSt                                                       
1003842b  macIeCoexistIePresent                                           
100384e5  macIeFreeList                                                   
00006935  macIncomingFrameSecurity                                        
000062d9  macIncomingFrameSecurityMaterialRetrieval                       
00011c05  macIncomingKeyUsagePolicyChecking                               
100352cd  macIncomingNonSlottedTx                                         
0000d98d  macIncomingSecurityLevelChecking                                
100358c5  macIndirectExpire                                               
100361e5  macIndirectMark                                                 
10036171  macIndirectRequeueFrame                                         
10035e09  macIndirectSend                                                 
10036085  macIndirectTxFrame                                              
10039e7d  macIsCsmOperational                                             
0000e48d  macKeyDescriptorLookup                                          
0000235b  macKeySourceLen                                                 
0000b07d  macLowLevelBufferInit                                           
00013f71  macLowLevelDiags                                                
00016b59  macLowLevelReset                                                
00016b65  macLowLevelResume                                               
00012465  macLowLevelYield                                                
1003a115  macMRFSKGetPhyDesc                                              
20005334  macMain                                                         
10038899  macMainReserve                                                  
10038791  macMainReset                                                    
100388e1  macMainSetTaskId                                                
00016609  macMcuInit                                                      
00015e05  macMcuLongDiv                                                   
0001661d  macMcuOverflowCapture                                           
0000edd5  macMcuOverflowSetCompare                                        
0000e515  macMcuOverflowSetPeriod                                         
00016c8b  macMcuRandomByte                                                
00015be1  macMcuTimerCapture                                              
2000537d  macMgmt                                                         
20004fac  macMgmtAction1                                                  
200052d4  macMgmtAction2                                                  
0000be35  macMgmtReset                                                    
100383c5  macMlmeSubIePresent                                             
10039ec1  macNoAction                                                     
00015bfd  macNopBackoffTimerExpiry                                        
00009c19  macOutgoingFrameKeyDescRetrieval                                
0000a48d  macOutgoingFrameSecurity                                        
10034999  macOutgoingNonSlottedTx                                         
10037ed5  macPanConflictComplete                                          
2000537e  macPanCoordinator                                               
1003818d  macParseHeaderIes                                               
1003827d  macParsePayloadIes                                              
100364a9  macPendAddrLen                                                  
2000537f  macPhyChannel                                                   
200041e4  macPhyTxPower                                                   
20004bbc  macPib                                                          
00016e2b  macPibCheckByPatch                                              
000019a8  macPibDefaults                                                  
000158a1  macPibIndex                                                     
1003a239  macPibReset                                                     
00001729  macPibTbl                                                       
10037e3d  macPollCnf                                                      
10037b91  macPollDataReqComplete                                          
100379b1  macPollDataRxInd                                                
10037bed  macPollFrameResponseTimeout                                     
10037e61  macPollRxAssocRsp                                               
10037de9  macPollRxDisassoc                                               
00001c94  macPollingSt                                                    
200042a8  macPrevPeriodRatCount                                           
20005380  macPwr                                                          
00016b71  macPwrReset                                                     
00003f85  macPwrVote                                                      
200043ee  macRadioAckIeeeFrame                                            
00016e2f  macRadioComputeLQI                                              
000041e1  macRadioCsmaTxCb                                                
000156a9  macRadioEnergyDetectStop                                        
000094d5  macRadioInit                                                    
000094d5  macRadioInitIeee                                                
000127d1  macRadioNeedAdjustPower                                         
00016c8b  macRadioRandomByte                                              
00011265  macRadioSetChannel                                              
000112c1  macRadioSetChannelRx                                            
000156c9  macRadioSetIEEEAddr                                             
00014581  macRadioSetPanCoordinator                                       
00016069  macRadioSetPanID                                                
0000f837  macRadioSetRE                                                   
00016081  macRadioSetShortAddr                                            
00016099  macRadioSetTxPower                                              
0000e945  macRadioStartScan                                               
00013655  macRadioStopScan                                                
00015231  macRadioSwInit                                                  
0000fb49  macRadioTxBOBoundary                                            
00006c4d  macRadioTxGo                                                    
0000dfbd  macRadioTxPrepCsmaSlottedIeee                                   
000105c9  macRadioTxPrepCsmaUnslotted                                     
000105c9  macRadioTxPrepCsmaUnslottedIeee                                 
0000d1c9  macRadioUpdateChannel                                           
0000d265  macRadioUpdateChannelRx                                         
0000c1bd  macRadioUpdateTxPower                                           
0000ee55  macRadioWakeupCb                                                
2000441f  macRadioYielded                                                 
0000da21  macRatCb_A                                                      
00013085  macRatCb_B                                                      
00013fa5  macRatDisableChannelB                                           
00016b7d  macRegisterSfdDetect                                            
00010a8d  macRequestBackoff                                               
0001131d  macRequestSFDTimeout                                            
20005230  macReset                                                        
00001e58  macRfDriverTable                                                
200040cc  macRfDrvTblPtr                                                  
00015c19  macRxAckTxDoneCallback                                          
20005381  macRxActive                                                     
10037871  macRxAssocRsp                                                   
100362b1  macRxAssociateReq                                               
00016e33  macRxBackoffHandler                                             
000160b1  macRxBackoffTimerExpiry                                         
100395bd  macRxBeacon                                                     
00005f89  macRxBeaconCritical                                             
10036419  macRxBeaconReq                                                  
00056001  macRxCb                                                         
100373fd  macRxCheckMACPendingCallback                                    
1003742d  macRxCheckPendingCallback                                       
200043e2  macRxCmdActive                                                  
10036cd9  macRxCompleteCallback                                           
10037a35  macRxCoordRealign                                               
200050d0  macRxDataEntryOffset                                            
200050e0  macRxDataEntryQueue                                             
10035f55  macRxDataReq                                                    
00012c2d  macRxDisable                                                    
100398d9  macRxDisassoc                                                   
00014e79  macRxEnable                                                     
20005382  macRxEnableFlags                                                
200050c4  macRxFilter                                                     
00010631  macRxHaltCleanup                                                
000145b1  macRxHardDisable                                                
00013fd9  macRxOff                                                        
00011fdd  macRxOffRequest                                                 
00010699  macRxOn                                                         
000160c9  macRxOnRequest                                                  
10036355  macRxOrphan                                                     
20005383  macRxOutgoingAckFlag                                            
200040f0  macRxOutputIeee                                                 
100364c5  macRxPanConflict                                                
200043e5  macRxPreempted                                                  
000156e9  macRxSFDTimerExpiry                                             
00016b89  macRxSequenceNum                                                
00014a91  macRxSoftDisable                                                
00014abd  macRxSoftEnable                                                 
20005360  macRxSymbol                                                     
20004d3c  macScan                                                         
20005280  macScanAction                                                   
1003a931  macScanCnfInit                                                  
1003a839  macScanComplete                                                 
1003a96d  macScanFailedInProgress                                         
000077d9  macScanNextChan                                                 
1003a599  macScanRxBeacon                                                 
0000a571  macScanRxCoordRealign                                           
1003a8b9  macScanStartTimer                                               
00001d06  macScanningSt                                                   
10039e91  macSecCpy                                                       
20004ec4  macSecurityPib                                                  
1003b199  macSecurityPibIndex                                             
1003ac6d  macSecurityPibReset                                             
00001ec4  macSecurityPibTbl                                               
2000188c  macSem                                                          
10038501  macSendDataMsg                                                  
00016631  macSendFsCmd                                                    
100386a1  macSendMsg                                                      
000021a4  macSendMsgBufSize                                               
000022c8  macSendMsgDataSize                                              
000048a1  macSendReceiveCmdIeee                                           
0000fd73  macSetDefaultsByPatch                                           
10039095  macSetDefaultsByPhyID                                           
10039bfd  macSetDefaultsByRE                                              
10038861  macSetEvent                                                     
10038845  macSetEvent16                                                   
1003753d  macSetSched                                                     
00015255  macSetupFsCmd                                                   
00009191  macSetupRATChanCompare                                          
0000c9b1  macSetupReceiveCmd                                              
200040d4  macSfdDetectCback                                               
2000442e  macSleepState                                                   
200042a4  macSpecUsecsPerSymbol                                           
20004fdc  macSrcExtAddrList                                               
20004414  macSrcMatchIsAckAllPending                                      
2000441e  macSrcMatchIsEnabled                                            
20004415  macSrcResIndex                                                  
2000524c  macSrcShortAddrList                                             
10034895  macStartBeaconPrepareCallback                                   
10035ad5  macStartBegin                                                   
10035311  macStartBroadcastPendTimer                                      
100363d9  macStartComplete                                                
10036309  macStartContinue                                                
10037d35  macStartFrameResponseTimer                                      
10037e15  macStartResponseTimer                                           
100359d5  macStartSetParams                                               
00001d78  macStartingSt                                                   
100388b1  macStateIdle                                                    
1003887d  macStateIdleOrPolling                                           
100388c9  macStateScanning                                                
20004390  macStateTbl                                                     
200050f4  macStatistics                                                   
0001400d  macStopCmd                                                      
000160f9  macSymbolBCTimerPowerUp                                         
000145e1  macSymbolTimerBCWakeUp                                          
00014041  macSymbolTimerCount                                             
00014611  macSymbolTimerICallTimerCback                                   
20005384  macSymbolTimerImpending                                         
0000e59d  macSymbolTimerInit                                              
00015279  macSymbolTimerPowerDown                                         
00013105  macSymbolTimerRealignIeee                                       
00016111  macSymbolTimerRestore                                           
200042ac  macSymbolTimerRollover                                          
00010af1  macSymbolTimerRolloverCallback                                  
00014ae9  macSymbolTimerSetRollover                                       
00013145  macSymbolTimerSetTrigger                                        
00016129  macSymbolTimerSetTriggerRollover                                
200042b0  macSymbolTimerTrigger                                           
0000b2e5  macSymbolTimerTriggerCallback                                   
10034e8d  macSyncTimeoutCallback                                          
200018cc  macTask                                                         
20005385  macTaskId                                                       
20004418  macTasksEvents                                                  
0001529d  macTimer                                                        
20005364  macTimerActive                                                  
00010b55  macTimerAddTimer                                                
00013a61  macTimerAligned                                                 
00010dfd  macTimerCancel                                                  
00014641  macTimerCheckUnAlignedQ                                         
00010e5d  macTimerGetNextTimer                                            
00014041  macTimerGetTime                                                 
00013a99  macTimerInit                                                    
200042a0  macTimerNewRollover                                             
0000ff95  macTimerRealign                                                 
00013691  macTimerRecalcUnaligned                                         
00015c35  macTimerRemoveTimer                                             
2000429c  macTimerRollover                                                
00002008  macTimerRolloverValue                                           
0000f2b5  macTimerSetRollover                                             
0001202d  macTimerStart                                                   
00016141  macTimerSyncRollover                                            
00012819  macTimerUpdActive                                               
0000e9c9  macTimerUpdateSymbolTimer                                       
00010001  macTrackPeriodCallback                                          
0000f32d  macTrackStartCallback                                           
0000c675  macTrackTimeoutCallback                                         
00015c19  macTxAckIsr                                                     
00014075  macTxAckNotReceivedCallback                                     
20005386  macTxActive                                                     
00016d4f  macTxBackoffHandler                                             
00016159  macTxBackoffTimerExpiry                                         
200042ce  macTxBe                                                         
10034421  macTxBeaconCompleteCallback                                     
200043e3  macTxCmdActive                                                  
100364f9  macTxCompleteCallback                                           
200042d6  macTxCsmaBackoffDelay                                           
10039e3d  macTxCsmaDelay                                                  
000136cd  macTxDecrypt                                                    
0000d301  macTxDoneCallback                                               
000052c9  macTxFrame                                                      
00002292  macTxFrameFailed                                                
00013ad1  macTxFrameRetransmit                                            
000022a0  macTxFrameSuccess                                               
200042cf  macTxGpInterframeDelay                                          
2000441c  macTxSlottedDelay                                               
200042cc  macTxSlottedDelayFactor                                         
200040d8  macTxTimestamp                                                  
00012c71  macTxTimestampCallback                                          
200042cd  macTxType                                                       
00013709  macTxUpdateIE                                                   
20005387  macUnitBackoffPeriod                                            
10039ea5  macUpdateCsmPhyParam                                            
10038349  macUpdateHeaderIEPtr                                            
1003b9f1  macUpdatePanId                                                  
10038489  macUpdatePayloadIEPtr                                           
20002128  macUser0Cfg                                                     
10039da1  macWSAsyncCnf                                                   
00016171  macWrapper8ByteUnused                                           
00057a3d  macWrapperAddDevice                                             
000054b9  macWrapperAddKeyInitFCtr                                        
00007675  macWrapperDeleteAllDevices                                      
0000660d  macWrapperDeleteDevice                                          
00006135  macWrapperDeleteKeyAndAssociatedDevices                         
1003c6e9  macWrapperGetDefaultSourceKey                                   
100387f9  mac_msg_deallocate                                              
0000a3a5  main                                                            
20004428  main_func_sp                                                    
0001495d  malloc                                                          
000152c1  memcmp                                                          
0000d39d  memcpy                                                          
0000f1c9  memset                                                          
200029d0  menuBuff                                                        
00002210  msacbackSizeTable                                               
200038a0  numJoinDevStatusLine                                            
200043e6  numRfCmd                                                        
200043e7  numRxCmd                                                        
200043e8  numRxPostCmd                                                    
200042d5  numTx                                                           
20005368  nvsCC26XXObjects                                                
00016d55  osalHeapAllocFxn                                                
00016d5b  osalHeapFreeFxn                                                 
000124b1  osalHeapGetStatsFxn                                             
0000f0c9  osalHeapInitFxn                                                 
00016e3f  osalHeapIsBlockingFxn                                           
200043dc  pClockHandleEDScan                                              
20001888  pMacCbackCheckPending                                           
20001884  pMacCbackQueryRetransmit                                        
20004274  pMacDataTx                                                      
200040dc  pMacRadioConfig                                                 
200041dc  pMaxPower                                                       
200043c4  pOverrides_ieee154                                              
200041d4  pRfMode                                                         
200041d8  pRfPowerTable                                                   
2000384a  permitJoining                                                   
00014c6d  radioComputeED                                                  
00001f74  resourceDB                                                      
00005c19  rfSelect                                                        
00014a0d  rf_patch_cpe_ieee_802_15_4                                      
200040ca  rxCmdHandle                                                     
20005388  rxFhRsl                                                         
200050c5  rxPromiscuousMode                                               
200050d4  rxRadioBufferPtr                                                
200050c8  rxSeqNum                                                        
00014b15  sAddrCmp                                                        
00016645  sAddrCpy                                                        
00015c89  sAddrExtCmp                                                     
00016659  sAddrExtCpy                                                     
20003849  savedCllcState                                                  
0000ce19  scheduleNopWakeupCmd                                            
0001666d  strlen                                                          
00015079  strncat                                                         
000140dd  strncpy                                                         
00057e75  strtol                                                          
200039f8  taskCnt                                                         
20003a1c  taskTbl                                                         
200035ec  ti_sysbios_family_arm_cc26xx_Timer_Module_state                 
000161e9  ti_sysbios_family_arm_cc26xx_Timer_Params_init                  
00008ac9  ti_sysbios_family_arm_cc26xx_Timer_construct                    
0001207d  ti_sysbios_family_arm_cc26xx_Timer_dynamicMultiStub             
00016201  ti_sysbios_family_arm_cc26xx_Timer_dynamicStub                  
00000040  ti_sysbios_family_arm_cc26xx_Timer_funcHookCH1                  
00000044  ti_sysbios_family_arm_cc26xx_Timer_funcHookCH2                  
000168fd  ti_sysbios_family_arm_cc26xx_Timer_getCount64                   
00014671  ti_sysbios_family_arm_cc26xx_Timer_getCurrentTick               
00015309  ti_sysbios_family_arm_cc26xx_Timer_getMaxTicks                  
00015e1f  ti_sysbios_family_arm_cc26xx_Timer_postInit                     
0001427b  ti_sysbios_family_arm_cc26xx_Timer_setNextTick                  
00016e43  ti_sysbios_family_arm_cc26xx_Timer_setPeriod                    
00013205  ti_sysbios_family_arm_cc26xx_Timer_setThreshold                 
00013245  ti_sysbios_family_arm_cc26xx_Timer_start                        
00014111  ti_sysbios_family_arm_m3_Hwi_Instance_finalize                  
0000ea4d  ti_sysbios_family_arm_m3_Hwi_Instance_init                      
200036b0  ti_sysbios_family_arm_m3_Hwi_Module_state                       
00001ac8  ti_sysbios_family_arm_m3_Hwi_NUM_INTERRUPTS                     
00016695  ti_sysbios_family_arm_m3_Hwi_Params_init                        
00001ad0  ti_sysbios_family_arm_m3_Hwi_ccr                                
00014f19  ti_sysbios_family_arm_m3_Hwi_construct                          
00013745  ti_sysbios_family_arm_m3_Hwi_construct2                         
00016d61  ti_sysbios_family_arm_m3_Hwi_destruct                           
00012cb5  ti_sysbios_family_arm_m3_Hwi_disableInterrupt                   
00001ac4  ti_sysbios_family_arm_m3_Hwi_disablePriority                    
00009f05  ti_sysbios_family_arm_m3_Hwi_dispatch                           
00011d55  ti_sysbios_family_arm_m3_Hwi_dispatchC                          
20004a2c  ti_sysbios_family_arm_m3_Hwi_dispatchTable                      
00001ac0  ti_sysbios_family_arm_m3_Hwi_dispatcherAutoNestingSupport       
00001ac1  ti_sysbios_family_arm_m3_Hwi_dispatcherSwiSupport               
00001ac2  ti_sysbios_family_arm_m3_Hwi_dispatcherTaskSupport              
00016cdd  ti_sysbios_family_arm_m3_Hwi_doSwiRestore                       
00016d67  ti_sysbios_family_arm_m3_Hwi_doTaskRestore                      
00012cf9  ti_sysbios_family_arm_m3_Hwi_enableInterrupt                    
0001690d  ti_sysbios_family_arm_m3_Hwi_excHandler                         
00014f41  ti_sysbios_family_arm_m3_Hwi_excHandlerAsm                      
00001ad8  ti_sysbios_family_arm_m3_Hwi_excHandlerFunc                     
00001ae0  ti_sysbios_family_arm_m3_Hwi_excHookFunc                        
00012d3d  ti_sysbios_family_arm_m3_Hwi_getStackInfo                       
00013b79  ti_sysbios_family_arm_m3_Hwi_init                               
0000e625  ti_sysbios_family_arm_m3_Hwi_initNVIC                           
000148d7  ti_sysbios_family_arm_m3_Hwi_initStack                          
000117b1  ti_sysbios_family_arm_m3_Hwi_initStacks                         
00009fdd  ti_sysbios_family_arm_m3_Hwi_interruptsAreDisabledButShouldNotBe
00001adc  ti_sysbios_family_arm_m3_Hwi_nullIsrFunc                        
00001acc  ti_sysbios_family_arm_m3_Hwi_numSparseInterrupts                
0001509f  ti_sysbios_family_arm_m3_Hwi_pendSV                             
00016219  ti_sysbios_family_arm_m3_Hwi_plug                               
0001691d  ti_sysbios_family_arm_m3_Hwi_post                               
00011431  ti_sysbios_family_arm_m3_Hwi_postInit                           
00001ad4  ti_sysbios_family_arm_m3_Hwi_priGroup                           
20000000  ti_sysbios_family_arm_m3_Hwi_ramVectors                         
00000000  ti_sysbios_family_arm_m3_Hwi_resetVectors                       
000150c3  ti_sysbios_family_arm_m3_Hwi_return                             
00016d73  ti_sysbios_family_arm_m3_Hwi_setFunc                            
0001532d  ti_sysbios_family_arm_m3_Hwi_setPriority                        
00016ce5  ti_sysbios_family_arm_m3_Hwi_startup                            
000166e5  ti_sysbios_family_arm_m3_Hwi_swiDisable                         
00013bb1  ti_sysbios_family_arm_m3_Hwi_swiRestore                         
0000f145  ti_sysbios_family_arm_m3_Hwi_swiRestoreHwi                      
00001abc  ti_sysbios_family_arm_m3_Hwi_swiTaskKeyAddress                  
00015955  ti_sysbios_family_arm_m3_Hwi_switchAndRunFunc                   
00016231  ti_sysbios_family_arm_m3_Hwi_switchFromBootStack                
0001670d  ti_sysbios_family_arm_m3_Hwi_taskDisable                        
00014fb9  ti_sysbios_family_arm_m3_Hwi_taskRestoreHwi                     
00015351  ti_sysbios_gates_GateMutexPri_Instance_init                     
200035cc  ti_sysbios_gates_GateMutexPri_Module_state                      
00016d79  ti_sysbios_gates_GateMutexPri_Params_init                       
00016ba1  ti_sysbios_gates_GateMutexPri_construct                         
000163bb  ti_sysbios_gates_GateMutexPri_create                            
0000ead1  ti_sysbios_gates_GateMutexPri_enter                             
000142ad  ti_sysbios_gates_GateMutexPri_insertPri                         
000101b1  ti_sysbios_gates_GateMutexPri_leave                             
20003610  ti_sysbios_hal_Seconds_Module_state                             
00016bad  ti_sysbios_heaps_HeapCallback_Instance_init                     
200035d4  ti_sysbios_heaps_HeapCallback_Module_state                      
00016d7f  ti_sysbios_heaps_HeapCallback_alloc                             
00013781  ti_sysbios_heaps_HeapCallback_construct                         
00016e47  ti_sysbios_heaps_HeapCallback_defaultCreate                     
00016d85  ti_sysbios_heaps_HeapCallback_free                              
00016d8b  ti_sysbios_heaps_HeapCallback_getStats                          
0000f0c9  ti_sysbios_heaps_HeapCallback_init                              
00016d91  ti_sysbios_heaps_HeapCallback_isBlocking                        
00016bb9  ti_sysbios_knl_ClockSupport_getCurrentTick                      
00016bc5  ti_sysbios_knl_ClockSupport_getMaxTicks                         
000146a1  ti_sysbios_knl_ClockSupport_init                                
00016bd1  ti_sysbios_knl_ClockSupport_setNextTick                         
20003780  ti_sysbios_knl_ClockSupport_timerStruct                         
000163d1  ti_sysbios_knl_Clock_Instance_finalize                          
000146d1  ti_sysbios_knl_Clock_Instance_init                              
200037e0  ti_sysbios_knl_Clock_Module_state                               
0001692d  ti_sysbios_knl_Clock_Params_init                                
000166a9  ti_sysbios_knl_Clock_construct                                  
000157e9  ti_sysbios_knl_Clock_create                                     
00015e39  ti_sysbios_knl_Clock_delete                                     
000163d1  ti_sysbios_knl_Clock_destruct                                   
0001693d  ti_sysbios_knl_Clock_enqueueI                                   
00016249  ti_sysbios_knl_Clock_getTicks                                   
00014701  ti_sysbios_knl_Clock_getTicksUntilInterrupt                     
00014c97  ti_sysbios_knl_Clock_getTimeout                                 
00011da9  ti_sysbios_knl_Clock_init                                       
00016a27  ti_sysbios_knl_Clock_initI                                      
00016e4b  ti_sysbios_knl_Clock_isActive                                   
00016e4f  ti_sysbios_knl_Clock_removeI                                    
00015cf9  ti_sysbios_knl_Clock_scheduleNextTick                           
00016e53  ti_sysbios_knl_Clock_setTimeout                                 
000163e7  ti_sysbios_knl_Clock_start                                      
0000f751  ti_sysbios_knl_Clock_startI                                     
00016d97  ti_sysbios_knl_Clock_stop                                       
00001ae8  ti_sysbios_knl_Clock_swiPriority                                
00016bdd  ti_sysbios_knl_Clock_tick                                       
00001aec  ti_sysbios_knl_Clock_tickMode                                   
00001af0  ti_sysbios_knl_Clock_tickPeriod                                 
00001af4  ti_sysbios_knl_Clock_tickSource                                 
0000f3a5  ti_sysbios_knl_Clock_walkQueueDynamic                           
0000ca55  ti_sysbios_knl_Clock_workFuncDynamic                            
00002368  ti_sysbios_knl_Idle_funcList                                    
0000fbb9  ti_sysbios_knl_Idle_init                                        
200035b8  ti_sysbios_knl_Idle_initDone                                    
00016ced  ti_sysbios_knl_Idle_loop                                        
0001694d  ti_sysbios_knl_Idle_run                                         
20004438  ti_sysbios_knl_Idle_taskStack                                   
20003728  ti_sysbios_knl_Idle_taskStruct                                  
00016d9d  ti_sysbios_knl_Queue_Instance_init                              
00016e57  ti_sysbios_knl_Queue_construct                                  
00016be9  ti_sysbios_knl_Queue_dequeue                                    
00016da3  ti_sysbios_knl_Queue_destruct                                   
00016da3  ti_sysbios_knl_Queue_elemClear                                  
00016a35  ti_sysbios_knl_Queue_empty                                      
00016bf5  ti_sysbios_knl_Queue_enqueue                                    
00016e5b  ti_sysbios_knl_Queue_head                                       
00016c01  ti_sysbios_knl_Queue_insert                                     
00016e5f  ti_sysbios_knl_Queue_next                                       
00016e63  ti_sysbios_knl_Queue_prev                                       
00015d15  ti_sysbios_knl_Queue_put                                        
00016a43  ti_sysbios_knl_Queue_remove                                     
00016da9  ti_sysbios_knl_Semaphore_Instance_finalize                      
00014f69  ti_sysbios_knl_Semaphore_Instance_init                          
200035dc  ti_sysbios_knl_Semaphore_Module_state                           
0001695d  ti_sysbios_knl_Semaphore_Params_init                            
000166bd  ti_sysbios_knl_Semaphore_construct                              
00015973  ti_sysbios_knl_Semaphore_create                                 
00015e53  ti_sysbios_knl_Semaphore_delete                                 
00015991  ti_sysbios_knl_Semaphore_destruct                               
00001af8  ti_sysbios_knl_Semaphore_eventPost                              
00001afc  ti_sysbios_knl_Semaphore_eventSync                              
0000b6c5  ti_sysbios_knl_Semaphore_pend                                   
00014b41  ti_sysbios_knl_Semaphore_pendTimeout                            
00011809  ti_sysbios_knl_Semaphore_post                                   
00001af5  ti_sysbios_knl_Semaphore_supportsEvents                         
00001af6  ti_sysbios_knl_Semaphore_supportsPriority                       
00010701  ti_sysbios_knl_Swi_Instance_init                                
2000365c  ti_sysbios_knl_Swi_Module_state                                 
00016261  ti_sysbios_knl_Swi_Params_init                                  
00015d31  ti_sysbios_knl_Swi_construct                                    
000166d1  ti_sysbios_knl_Swi_construct2                                   
00016279  ti_sysbios_knl_Swi_destruct                                     
000166e5  ti_sysbios_knl_Swi_disable                                      
000166f9  ti_sysbios_knl_Swi_enabled                                      
00016c0d  ti_sysbios_knl_Swi_getTrigger                                   
00014731  ti_sysbios_knl_Swi_init                                         
00001b00  ti_sysbios_knl_Swi_numPriorities                                
00016291  ti_sysbios_knl_Swi_or                                           
000124fd  ti_sysbios_knl_Swi_post                                         
00016e67  ti_sysbios_knl_Swi_postInit                                     
2000500c  ti_sysbios_knl_Swi_readyQs                                      
00013bb1  ti_sysbios_knl_Swi_restore                                      
0000f145  ti_sysbios_knl_Swi_restoreHwi                                   
0001021d  ti_sysbios_knl_Swi_run                                          
0001148d  ti_sysbios_knl_Swi_runLoop                                      
000114e9  ti_sysbios_knl_Swi_schedule                                     
00014761  ti_sysbios_knl_Swi_setPri                                       
00016daf  ti_sysbios_knl_Swi_startup                                      
00009e0d  ti_sysbios_knl_TaskSupport_buildTaskStack                       
00016e6b  ti_sysbios_knl_TaskSupport_getStackAlignment                    
0001696d  ti_sysbios_knl_TaskSupport_glue                                 
00001ae4  ti_sysbios_knl_TaskSupport_stackAlignment                       
00014791  ti_sysbios_knl_TaskSupport_start                                
00015d4d  ti_sysbios_knl_TaskSupport_swap                                 
00015d5d  ti_sysbios_knl_TaskSupport_swapReturn                           
0000d439  ti_sysbios_knl_Task_Instance_finalize                           
0000aed5  ti_sysbios_knl_Task_Instance_init                               
200036ec  ti_sysbios_knl_Task_Module_state                                
000162a9  ti_sysbios_knl_Task_Params_init                                 
00001b04  ti_sysbios_knl_Task_allBlockedFunc                              
00015375  ti_sysbios_knl_Task_allBlockedFunction                          
000163fd  ti_sysbios_knl_Task_block                                       
00013285  ti_sysbios_knl_Task_blockI                                      
00001b29  ti_sysbios_knl_Task_checkStackFlag                              
00015809  ti_sysbios_knl_Task_construct                                   
200035c4  ti_sysbios_knl_Task_defaultStackHeap                            
00001b24  ti_sysbios_knl_Task_defaultStackSize                            
00001b2a  ti_sysbios_knl_Task_deleteTerminatedTasks                       
0001670d  ti_sysbios_knl_Task_disable                                     
00016db5  ti_sysbios_knl_Task_enable                                      
00015399  ti_sysbios_knl_Task_enter                                       
000137bd  ti_sysbios_knl_Task_exit                                        
000159af  ti_sysbios_knl_Task_getModuleStateCheckValue                    
00013be9  ti_sysbios_knl_Task_getObjectCheckValue                         
00016e6f  ti_sysbios_knl_Task_getPri                                      
00014b6d  ti_sysbios_knl_Task_init                                        
00001b28  ti_sysbios_knl_Task_initStackFlag                               
00014f91  ti_sysbios_knl_Task_moduleStateCheck                            
00001b10  ti_sysbios_knl_Task_moduleStateCheckFlag                        
00001b08  ti_sysbios_knl_Task_moduleStateCheckFxn                         
00001b0c  ti_sysbios_knl_Task_moduleStateCheckValueFxn                    
00001b20  ti_sysbios_knl_Task_numPriorities                               
00016721  ti_sysbios_knl_Task_objectCheck                                 
00001b1c  ti_sysbios_knl_Task_objectCheckFlag                             
00001b14  ti_sysbios_knl_Task_objectCheckFxn                              
00001b18  ti_sysbios_knl_Task_objectCheckValueFxn                         
0000f41d  ti_sysbios_knl_Task_postInit                                    
00013c21  ti_sysbios_knl_Task_processVitalTaskFlag                        
2000503c  ti_sysbios_knl_Task_readyQs                                     
000147c1  ti_sysbios_knl_Task_restore                                     
00014fb9  ti_sysbios_knl_Task_restoreHwi                                  
00010f7d  ti_sysbios_knl_Task_schedule                                    
00016c19  ti_sysbios_knl_Task_self                                        
0000c26d  ti_sysbios_knl_Task_setPri                                      
00010769  ti_sysbios_knl_Task_startup                                     
000162c1  ti_sysbios_knl_Task_unblock                                     
00014145  ti_sysbios_knl_Task_unblockI                                    
00016e73  ti_sysbios_runtime_Error_check                                  
200035f8  ti_sysbios_runtime_Error_ignore                                 
000129c5  ti_sysbios_runtime_Error_print                                  
00014179  ti_sysbios_runtime_Error_raiseX                                 
000120cd  ti_sysbios_runtime_Memory_alloc                                 
200035c8  ti_sysbios_runtime_Memory_defaultHeapInstance                   
00016735  ti_sysbios_runtime_Memory_free                                  
00016e77  ti_sysbios_runtime_Memory_getMaxDefaultTypeAlign                
20004430  ti_sysbios_runtime_Startup_done                                 
00013c59  ti_sysbios_runtime_Startup_exec                                 
0000b3b1  ti_sysbios_runtime_Startup_reset                                
00010c1b  ti_sysbios_runtime_SysCallback_defaultAbort                     
0001103b  ti_sysbios_runtime_SysCallback_defaultExit                      
0001159f  ti_sysbios_runtime_SysCallback_defaultInit                      
00011963  ti_sysbios_runtime_SysCallback_defaultPutch                     
00016e7b  ti_sysbios_runtime_SysCallback_defaultReady                     
00010c1b  ti_sysbios_runtime_SystemSupport_abort                          
0001103b  ti_sysbios_runtime_SystemSupport_exit                           
0001159f  ti_sysbios_runtime_SystemSupport_init                           
00011963  ti_sysbios_runtime_SystemSupport_putch                          
00016e7b  ti_sysbios_runtime_SystemSupport_ready                          
20003604  ti_sysbios_runtime_System_Module_state                          
000167c9  ti_sysbios_runtime_System_abort                                 
00001b30  ti_sysbios_runtime_System_abortFxn                              
000129c3  ti_sysbios_runtime_System_abortSpin                             
000141ad  ti_sysbios_runtime_System_atexit                                
2000536c  ti_sysbios_runtime_System_atexitHandlers                        
00003211  ti_sysbios_runtime_System_doPrint                               
00016c25  ti_sysbios_runtime_System_exit                                  
00001b34  ti_sysbios_runtime_System_exitFxn                               
00012a0b  ti_sysbios_runtime_System_exitSpin                              
0000fd75  ti_sysbios_runtime_System_formatNum                             
000162d9  ti_sysbios_runtime_System_init                                  
00001b2c  ti_sysbios_runtime_System_maxAtexitHandlers                     
00015e6d  ti_sysbios_runtime_System_printf                                
00015e87  ti_sysbios_runtime_System_printfExtend                          
00016e7f  ti_sysbios_runtime_System_printf_va                             
000141e1  ti_sysbios_runtime_System_processAtExit                         
00014b99  ti_sysbios_runtime_System_putchar                               
000150c5  ti_sysbios_runtime_System_vprintf                               
0001697d  ti_sysbios_runtime_System_vsnprintf                             
20005370  timerAlignedQ                                                   
20005374  timerUnalignedQ                                                 
200042d0  txAckReq                                                        
200043ec  txCmdHandle                                                     
0000c71d  txComplete                                                      
00006f55  txCsmaDelay                                                     
20004020  txPowerTable_2400_pa5                                           
200042d3  txSeqn                                                          
20004638  uart2CC26X2Objects                                              
00002340  udmaCC26XXHWAttrs                                               
20005168  udmaCC26XXObject                                                


GLOBAL SYMBOLS: SORTED BY Symbol Address 

address   name                                                            
-------   ----                                                            
00000000  __TI_static_base__                                              
00000000  ti_sysbios_family_arm_m3_Hwi_resetVectors                       
00000040  ti_sysbios_family_arm_cc26xx_Timer_funcHookCH1                  
00000044  ti_sysbios_family_arm_cc26xx_Timer_funcHookCH2                  
00000560  __STACK_SIZE                                                    
00000b80  HMAC_ROM_Flash_JT                                               
00001528  _ctypes_                                                        
00001729  macPibTbl                                                       
00001823  TemperatureCC26X2_config                                        
00001824  LMAC_ROM_Flash_JT                                               
000018f0  RF_cmdIeeeRxAck_ieee154                                         
00001904  RF_cmdRadioSetup_ieee154                                        
0000191c  RF_cmdFs_ieee154                                                
00001934  RF_cmdIeeeTx_ieee154                                            
0000194c  RF_cmdIeeeCsma_ieee154                                          
0000196c  RF_cmdIeeeRx_ieee154                                            
000019a8  macPibDefaults                                                  
00001ab4  BIOS_runtimeCreatesEnabled                                      
00001ab5  BIOS_taskEnabled                                                
00001ab6  BIOS_swiEnabled                                                 
00001ab7  BIOS_clockEnabled                                               
00001ab8  BIOS_heapSize                                                   
00001abc  ti_sysbios_family_arm_m3_Hwi_swiTaskKeyAddress                  
00001ac0  ti_sysbios_family_arm_m3_Hwi_dispatcherAutoNestingSupport       
00001ac1  ti_sysbios_family_arm_m3_Hwi_dispatcherSwiSupport               
00001ac2  ti_sysbios_family_arm_m3_Hwi_dispatcherTaskSupport              
00001ac4  ti_sysbios_family_arm_m3_Hwi_disablePriority                    
00001ac8  ti_sysbios_family_arm_m3_Hwi_NUM_INTERRUPTS                     
00001acc  ti_sysbios_family_arm_m3_Hwi_numSparseInterrupts                
00001ad0  ti_sysbios_family_arm_m3_Hwi_ccr                                
00001ad4  ti_sysbios_family_arm_m3_Hwi_priGroup                           
00001ad8  ti_sysbios_family_arm_m3_Hwi_excHandlerFunc                     
00001adc  ti_sysbios_family_arm_m3_Hwi_nullIsrFunc                        
00001ae0  ti_sysbios_family_arm_m3_Hwi_excHookFunc                        
00001ae4  ti_sysbios_knl_TaskSupport_stackAlignment                       
00001ae8  ti_sysbios_knl_Clock_swiPriority                                
00001aec  ti_sysbios_knl_Clock_tickMode                                   
00001af0  ti_sysbios_knl_Clock_tickPeriod                                 
00001af4  ti_sysbios_knl_Clock_tickSource                                 
00001af5  ti_sysbios_knl_Semaphore_supportsEvents                         
00001af6  ti_sysbios_knl_Semaphore_supportsPriority                       
00001af8  ti_sysbios_knl_Semaphore_eventPost                              
00001afc  ti_sysbios_knl_Semaphore_eventSync                              
00001b00  ti_sysbios_knl_Swi_numPriorities                                
00001b04  ti_sysbios_knl_Task_allBlockedFunc                              
00001b08  ti_sysbios_knl_Task_moduleStateCheckFxn                         
00001b0c  ti_sysbios_knl_Task_moduleStateCheckValueFxn                    
00001b10  ti_sysbios_knl_Task_moduleStateCheckFlag                        
00001b14  ti_sysbios_knl_Task_objectCheckFxn                              
00001b18  ti_sysbios_knl_Task_objectCheckValueFxn                         
00001b1c  ti_sysbios_knl_Task_objectCheckFlag                             
00001b20  ti_sysbios_knl_Task_numPriorities                               
00001b24  ti_sysbios_knl_Task_defaultStackSize                            
00001b28  ti_sysbios_knl_Task_initStackFlag                               
00001b29  ti_sysbios_knl_Task_checkStackFlag                              
00001b2a  ti_sysbios_knl_Task_deleteTerminatedTasks                       
00001b2c  ti_sysbios_runtime_System_maxAtexitHandlers                     
00001b30  ti_sysbios_runtime_System_abortFxn                              
00001b34  ti_sysbios_runtime_System_exitFxn                               
00001b3d  Cllc_keySource                                                  
00001bb0  macAssociatingSt                                                
00001c22  macIdleSt                                                       
00001c94  macPollingSt                                                    
00001d06  macScanningSt                                                   
00001d78  macStartingSt                                                   
00001dec  ICALL_OSAL_ROM_Flash_JT                                         
00001e58  macRfDriverTable                                                
00001ec4  macSecurityPibTbl                                               
00001f74  resourceDB                                                      
00001fc8  macCryptoDriverTable                                            
00002008  macTimerRolloverValue                                           
00002048  macCmdIncludeFHIe                                               
00002080  NVSCC26XX_fxnTable                                              
000020f0  UART2_defaultParams                                             
0000218c  PWM_defaultParams                                               
000021a4  macSendMsgBufSize                                               
000021bc  Display_count                                                   
000021bd  CONFIG_AESCCM_0_CONST                                           
000021be  AESCCM_count                                                    
000021bf  GPIO_pinLowerBound                                              
000021c0  GPIO_pinUpperBound                                              
000021c1  CONFIG_GPIO_DISPLAY_UART_TX_CONST                               
000021c2  CONFIG_GPIO_DISPLAY_UART_RX_CONST                               
000021c3  CONFIG_GPIO_RLED_CONST                                          
000021c4  CONFIG_GPIO_GLED_CONST                                          
000021c5  CONFIG_GPIO_BTN1_CONST                                          
000021c6  CONFIG_GPIO_BTN2_CONST                                          
000021c7  CONFIG_NVSINTERNAL_CONST                                        
000021c8  NVS_count                                                       
000021c9  CONFIG_DISPLAY_UART_CONST                                       
000021ca  UART2_count                                                     
000021cb  CONFIG_BTN_LEFT_CONST                                           
000021cc  CONFIG_BTN_RIGHT_CONST                                          
000021cd  Button_count                                                    
000021ce  CONFIG_LED_RED_CONST                                            
000021cf  CONFIG_LED_GREEN_CONST                                          
000021d0  LED_count                                                       
000021d1  aesccmCC26XXHWAttrs                                             
000021d4  Button_defaultParams                                            
000021e8  PowerCC26X2_config                                              
000021fc  TRNG_defaultParams                                              
00002210  msacbackSizeTable                                               
00002224  AESCCM_defaultParams                                            
00002244  Button_config                                                   
00002254  GPIO_config                                                     
00002264  LED_config                                                      
00002274  macIEEEPhyTable                                                 
00002284  macCmdBufSize                                                   
00002292  macTxFrameFailed                                                
000022a0  macTxFrameSuccess                                               
000022bc  macCbackEventTbl                                                
000022c8  macSendMsgDataSize                                              
000022d4  NVS_config                                                      
000022e0  RFCC26XX_hwAttrs                                                
000022ec  macCmdLen                                                       
00002310  macAuthTagLen                                                   
00002318  AESCCM_config                                                   
00002320  LED_defaultParams                                               
00002328  UART2_config                                                    
00002330  UDMACC26XX_config                                               
00002340  udmaCC26XXHWAttrs                                               
0000235b  macKeySourceLen                                                 
00002364  NVS_defaultParams                                               
00002368  ti_sysbios_knl_Idle_funcList                                    
0000236d  Csf_processEvents                                               
0000277f  BIOS_nullFunc                                                   
00002781  Csf_init                                                        
00003211  ti_sysbios_runtime_System_doPrint                               
00003801  RF_open                                                         
00003a99  UART2_writeTimeout                                              
00003f85  macPwrVote                                                      
000041e1  macRadioCsmaTxCb                                                
000048a1  macSendReceiveCmdIeee                                           
00004abd  RF_scheduleCmd                                                  
00004ed5  UART2_readTimeout                                               
000052c9  macTxFrame                                                      
000054b9  macWrapperAddKeyInitFCtr                                        
00005875  UART2_open                                                      
00005c19  rfSelect                                                        
00005f89  macRxBeaconCritical                                             
00006135  macWrapperDeleteKeyAndAssociatedDevices                         
000062d9  macIncomingFrameSecurityMaterialRetrieval                       
00006475  Power_sleep                                                     
0000660d  macWrapperDeleteDevice                                          
00006935  macIncomingFrameSecurity                                        
00006c4d  macRadioTxGo                                                    
00006f55  txCsmaDelay                                                     
00007237  Board_initHook                                                  
00007239  Power_init                                                      
00007511  Collector_init                                                  
00007675  macWrapperDeleteAllDevices                                      
000077d9  macScanNextChan                                                 
00007935  NOROM_SysCtrlStandby                                            
000084bd  NVSCC26XX_write                                                 
00008865  macBuildDataFrame                                               
00008ac9  ti_sysbios_family_arm_cc26xx_Timer_construct                    
00008bf1  CUI_statusLinePrintf                                            
00008d11  Csf_deviceUpdate                                                
00008e31  RF_close                                                        
00009191  macSetupRATChanCompare                                          
000093c1  MAC_CbackEvent                                                  
000094d5  macRadioInit                                                    
000094d5  macRadioInitIeee                                                
000095e9  CUI_init                                                        
000096f9  CUI_menuActionHelp                                              
00009809  LED_open                                                        
00009a1d  CUI_statusLineResourceRequest                                   
00009c19  macOutgoingFrameKeyDescRetrieval                                
00009e0d  ti_sysbios_knl_TaskSupport_buildTaskStack                       
00009f05  ti_sysbios_family_arm_m3_Hwi_dispatch                           
00009fdd  ti_sysbios_family_arm_m3_Hwi_interruptsAreDisabledButShouldNotBe
0000a1d5  Button_init                                                     
0000a1d5  GPIO_init                                                       
0000a2bd  UART2Support_dmaStartRx                                         
0000a3a5  main                                                            
0000a48d  macOutgoingFrameSecurity                                        
0000a571  macScanRxCoordRealign                                           
0000a655  RF_control                                                      
0000a735  Collector_sendConfigRequest                                     
0000a811  NOROM_AESWriteToKeyStore                                        
0000a8ed  macBuildHeaderIes                                               
0000a9c9  RF_pendCmd                                                      
0000aaa1  macCcmStarTransform                                             
0000ab79  macEdScanISR                                                    
0000ae01  MAC_MlmeScanReq                                                 
0000aed5  ti_sysbios_knl_Task_Instance_init                               
0000b07b  NOROM_RFCCpePatchReset                                          
0000b07d  macLowLevelBufferInit                                           
0000b14d  Button_open                                                     
0000b2e5  macSymbolTimerTriggerCallback                                   
0000b3b1  Boot_trimDevice                                                 
0000b3b1  NOROM_SetupTrimDevice                                           
0000b3b1  _system_pre_init                                                
0000b3b1  iar_startup_reset                                               
0000b3b1  ti_sysbios_runtime_Startup_reset                                
0000b479  Cllc_removeDevice                                               
0000b53d  MAC_SrcMatchAddEntry                                            
0000b601  macApiStartReq                                                  
0000b6c5  ti_sysbios_knl_Semaphore_pend                                   
0000b789  MAC_PwrOffReq                                                   
0000b909  Power_releaseDependency                                         
0000bc05  macAutoPoll                                                     
0000bcc1  macGetRFCmdDuration                                             
0000bd7d  Power_setDependency                                             
0000be35  macMgmtReset                                                    
0000bfa5  PowerCC26XX_standbyPolicy                                       
0000c10d  macDataTxComplete                                               
0000c1bd  macRadioUpdateTxPower                                           
0000c26d  ti_sysbios_knl_Task_setPri                                      
0000c3c9  UART2Support_dmaStartTx                                         
0000c475  macApiBeaconStartReq                                            
0000c5cd  macBeaconCheckTxTime                                            
0000c675  macTrackTimeoutCallback                                         
0000c71d  txComplete                                                      
0000c90d  macCcmStarInverseTransform                                      
0000c9b1  macSetupReceiveCmd                                              
0000ca55  ti_sysbios_knl_Clock_workFuncDynamic                            
0000cc39  RF_requestAccess                                                
0000ccd9  UART2_close                                                     
0000cd79  macBlacklistChecking                                            
0000ce19  scheduleNopWakeupCmd                                            
0000ceb9  __TI_auto_init                                                  
0000cf59  Cllc_init                                                       
0000d12d  TRNG_construct                                                  
0000d1c9  macRadioUpdateChannel                                           
0000d265  macRadioUpdateChannelRx                                         
0000d301  macTxDoneCallback                                               
0000d39d  __aeabi_memcpy                                                  
0000d39d  __aeabi_memcpy4                                                 
0000d39d  __aeabi_memcpy8                                                 
0000d39d  memcpy                                                          
0000d439  ti_sysbios_knl_Task_Instance_finalize                           
0000d4d5  NOROM_OSC_HPOSCInitializeFrequencyOffsetParameters              
0000d735  macAutoPendAddSrcMatchTableEntry                                
0000d7cd  __aeabi_uldivmod                                                
0000d865  Csf_updateFrameCounter                                          
0000d98d  macIncomingSecurityLevelChecking                                
0000da21  macRatCb_A                                                      
0000db47  _nop                                                            
0000db49  MAC_ResumeReq                                                   
0000dc69  RF_getInfo                                                      
0000dcf9  macCcmDecrypt                                                   
0000de19  OsalPort_malloc                                                 
0000df31  macCcmEncrypt                                                   
0000dfbd  macRadioTxPrepCsmaSlottedIeee                                   
0000e0d5  Csf_getDeviceItem                                               
0000e15d  MAC_SrcMatchEnable                                              
0000e1e5  NOROM_OSCHF_AttemptToSwitchToXosc                               
0000e2f5  RF_getTxPower                                                   
0000e48d  macKeyDescriptorLookup                                          
0000e515  macMcuOverflowSetPeriod                                         
0000e59d  macSymbolTimerInit                                              
0000e625  ti_sysbios_family_arm_m3_Hwi_initNVIC                           
0000e735  Cllc_securityInit                                               
0000e945  macRadioStartScan                                               
0000e9c9  macTimerUpdateSymbolTimer                                       
0000ea4d  ti_sysbios_family_arm_m3_Hwi_Instance_init                      
0000ead1  ti_sysbios_gates_GateMutexPri_enter                             
0000eb55  Cllc_restoreNetwork                                             
0000ebd5  NOROM_ChipInfo_GetChipType                                      
0000ec55  NVSCC26XX_open                                                  
0000ecd5  OsalPort_setTimer                                               
0000edd5  macMcuOverflowSetCompare                                        
0000ee55  macRadioWakeupCb                                                
0000f0c9  osalHeapInitFxn                                                 
0000f0c9  ti_sysbios_heaps_HeapCallback_init                              
0000f145  ti_sysbios_family_arm_m3_Hwi_swiRestoreHwi                      
0000f145  ti_sysbios_knl_Swi_restoreHwi                                   
0000f1c1  __aeabi_memclr                                                  
0000f1c1  __aeabi_memclr4                                                 
0000f1c1  __aeabi_memclr8                                                 
0000f1c3  __aeabi_memset                                                  
0000f1c3  __aeabi_memset4                                                 
0000f1c3  __aeabi_memset8                                                 
0000f1c9  memset                                                          
0000f2b5  macTimerSetRollover                                             
0000f32d  macTrackStartCallback                                           
0000f3a5  ti_sysbios_knl_Clock_walkQueueDynamic                           
0000f41d  ti_sysbios_knl_Task_postInit                                    
0000f50b  macApiPwrOnReq                                                  
0000f50d  Csf_getDevice                                                   
0000f5f5  PowerCC26X2_auxISR                                              
0000f669  RF_ratDisableChannel                                            
0000f6dd  RF_yield                                                        
0000f751  ti_sysbios_knl_Clock_startI                                     
0000f837  macRadioSetRE                                                   
0000f8a9  NOROM_RFCAnaDivTxOverride                                       
0000f989  RF_getCurrentTime                                               
0000f9f9  Random_seedAutomatic                                            
0000fa69  Temperature_init                                                
0000fb49  macRadioTxBOBoundary                                            
0000fbb9  ti_sysbios_knl_Idle_init                                        
0000fd05  __aeabi_ldivmod                                                 
0000fd73  macSetDefaultsByPatch                                           
0000fd75  ti_sysbios_runtime_System_formatNum                             
0000fde3  __aeabi_idiv0                                                   
0000fde3  __aeabi_ldiv0                                                   
0000fde5  Csf_sendDisassociateMsg                                         
0000fe51  GPIO_setConfig                                                  
0000ff29  UART2Support_dmaStopTx                                          
0000ff95  macTimerRealign                                                 
00010001  macTrackPeriodCallback                                          
000101b1  ti_sysbios_gates_GateMutexPri_leave                             
0001021d  ti_sysbios_knl_Swi_run                                          
00010289  Csf_getDeviceExtAdd                                             
000102f1  NOROM_OSCHF_SwitchToRcOscTurnOffXosc                            
00010359  NOROM_OSC_HPOSCRtcCompensate                                    
00010429  OsalPort_registerTask                                           
000104f9  __TI_decompress_lzss                                            
000105c9  macRadioTxPrepCsmaUnslotted                                     
000105c9  macRadioTxPrepCsmaUnslottedIeee                                 
00010631  macRxHaltCleanup                                                
00010699  macRxOn                                                         
00010701  ti_sysbios_knl_Swi_Instance_init                                
00010769  ti_sysbios_knl_Task_startup                                     
00010835  Button_gpioCallbackFxn                                          
000108fd  OsalPort_clearEvent                                             
00010961  OsalPort_pwrmgrTaskState                                        
000109c5  UART2Support_dmaStopRx                                          
00010a8d  macRequestBackoff                                               
00010af1  macSymbolTimerRolloverCallback                                  
00010b55  macTimerAddTimer                                                
00010c1b  ti_sysbios_runtime_SysCallback_defaultAbort                     
00010c1b  ti_sysbios_runtime_SystemSupport_abort                          
00010c7d  CryptoResourceCC26XX_constructRTOSObjects                       
00010d9d  macGetRadioTxPowerReg                                           
00010dfd  macTimerCancel                                                  
00010e5d  macTimerGetNextTimer                                            
00010f7d  ti_sysbios_knl_Task_schedule                                    
00010fdd  convertTxOptions                                                
0001103b  ti_sysbios_runtime_SysCallback_defaultExit                      
0001103b  ti_sysbios_runtime_SystemSupport_exit                           
00011099  OsalPort_msgReceive                                             
000110f5  OsalPort_setEvent                                               
000111ad  UART2_readCancel                                                
00011265  macRadioSetChannel                                              
000112c1  macRadioSetChannelRx                                            
0001131d  macRequestSFDTimeout                                            
00011431  ti_sysbios_family_arm_m3_Hwi_postInit                           
0001148d  ti_sysbios_knl_Swi_runLoop                                      
000114e9  ti_sysbios_knl_Swi_schedule                                     
00011545  UART2_writeCancel                                               
0001159f  ti_sysbios_runtime_SysCallback_defaultInit                      
0001159f  ti_sysbios_runtime_SystemSupport_init                           
000115f9  PowerCC26X2_initiateCalibration                                 
00011651  RF_TxPowerTable_findValue                                       
000116a9  TRNG_init                                                       
00011701  macCanSleep                                                     
00011759  ResetISR                                                        
00011759  _c_int00                                                        
000117b1  ti_sysbios_family_arm_m3_Hwi_initStacks                         
00011809  ti_sysbios_knl_Semaphore_post                                   
00011861  Board_sendExtFlashByte                                          
000118b7  LED_startBlinking                                               
0001190d  RF_defaultSubmitPolicy                                          
00011963  ti_sysbios_runtime_SysCallback_defaultPutch                     
00011963  ti_sysbios_runtime_SystemSupport_putch                          
00011965  AESCCM_construct                                                
000119b9  Board_shutDownExtFlash                                          
00011a0d  Cllc_addSecDevice                                               
00011a61  NOROM_PRCMPowerDomainsAllOff                                    
00011b09  NVSCC26XX_init                                                  
00011bb1  StructRingBuf_put                                               
00011c05  macIncomingKeyUsagePolicyChecking                               
00011d55  ti_sysbios_family_arm_m3_Hwi_dispatchC                          
00011da9  ti_sysbios_knl_Clock_init                                       
00011dfd  GPIO_hwiIntFxn                                                  
00011eed  Temperature_registerNotifyRange                                 
00011f3d  UART2Support_dmaRefreshRx                                       
00011fdd  macRxOffRequest                                                 
0001202d  macTimerStart                                                   
0001207d  ti_sysbios_family_arm_cc26xx_Timer_dynamicMultiStub             
000120cd  ti_sysbios_runtime_Memory_alloc                                 
00012205  NOROM_PRCMPowerDomainsAllOn                                     
0001229d  OsalPort_msgSend                                                
00012335  StructRingBuf_get                                               
00012381  UDMACC26XX_open                                                 
000123cd  atoi                                                            
00012419  copy_in                                                         
00012465  macLowLevelYield                                                
000124b1  osalHeapGetStatsFxn                                             
000124fd  ti_sysbios_knl_Swi_post                                         
00012549  Csf_getNumDeviceListEntries                                     
00012591  NOROM_RFCSynthPowerDown                                         
00012621  NVS_open                                                        
00012669  PowerCC26X2_RCOSC_clockFunc                                     
000126b1  PowerCC26XX_switchXOSC_HF                                       
000126f9  RF_enableHPOSCTemperatureCompensation                           
000127d1  macRadioNeedAdjustPower                                         
00012819  macTimerUpdActive                                               
000128f1  RingBuf_put                                                     
00012937  SwiP_construct                                                  
0001297d  macDeviceDescriptorLookup                                       
000129c3  ti_sysbios_runtime_System_abortSpin                             
000129c5  ti_sysbios_runtime_Error_print                                  
00012a0b  ti_sysbios_runtime_System_exitSpin                              
00012a0d  BIOS_startFunc                                                  
00012a51  Cllc_sendDisassociationRequest                                  
00012a95  MAC_PwrNextTimeout                                              
00012ad9  NOROM_ChipInfo_GetHwRevision                                    
00012b1d  NVSCC26XX_read                                                  
00012b61  PWM_init                                                        
00012c2d  macRxDisable                                                    
00012c71  macTxTimestampCallback                                          
00012cb5  ti_sysbios_family_arm_m3_Hwi_disableInterrupt                   
00012cf9  ti_sysbios_family_arm_m3_Hwi_enableInterrupt                    
00012d3d  ti_sysbios_family_arm_m3_Hwi_getStackInfo                       
00012dc5  Csf_getNetworkInformation                                       
00012e05  NOROM_OSC_HPOSCRelativeFrequencyOffsetGet                       
00012e45  OsalPort_free                                                   
00012e85  PWM_open                                                        
00012ec5  PowerCC26XX_isStableXOSC_HF                                     
00012f45  Random_getNumber                                                
00012fc5  UART2_readFull                                                  
00013005  UtilTimer_construct                                             
00013085  macRatCb_B                                                      
00013105  macSymbolTimerRealignIeee                                       
00013145  macSymbolTimerSetTrigger                                        
00013185  __aeabi_uidiv                                                   
00013185  __aeabi_uidivmod                                                
00013205  ti_sysbios_family_arm_cc26xx_Timer_setThreshold                 
00013245  ti_sysbios_family_arm_cc26xx_Timer_start                        
00013285  ti_sysbios_knl_Task_blockI                                      
000132c5  CryptoUtils_buffersMatch                                        
00013303  LED_setBrightnessLevel                                          
00013341  OsalPort_msgEnqueueMax                                          
0001337f  RingBuf_putAdvance                                              
00013475  LED_setOff                                                      
000134b1  MAC_PwrOnReq                                                    
00013655  macRadioStopScan                                                
00013691  macTimerRecalcUnaligned                                         
000136cd  macTxDecrypt                                                    
00013709  macTxUpdateIE                                                   
00013745  ti_sysbios_family_arm_m3_Hwi_construct2                         
00013781  ti_sysbios_heaps_HeapCallback_construct                         
000137bd  ti_sysbios_knl_Task_exit                                        
000137f9  Cllc_setJoinPermit                                              
00013831  ClockP_create                                                   
00013869  Collector_sendDeviceTypeRequest                                 
000138a1  Collector_sendToggleLedRequest                                  
000138d9  HwiP_construct                                                  
00013949  PowerCC26X2_enableHposcRtcCompensation                          
000139b9  UART2Support_sendData                                           
000139f1  UART2_rxEnable                                                  
00013a61  macTimerAligned                                                 
00013a99  macTimerInit                                                    
00013ad1  macTxFrameRetransmit                                            
00013b79  ti_sysbios_family_arm_m3_Hwi_init                               
00013bb1  SwiP_restore                                                    
00013bb1  ti_sysbios_family_arm_m3_Hwi_swiRestore                         
00013bb1  ti_sysbios_knl_Swi_restore                                      
00013be9  ti_sysbios_knl_Task_getObjectCheckValue                         
00013c21  ti_sysbios_knl_Task_processVitalTaskFlag                        
00013c59  _system_post_cinit                                              
00013c59  iar_startup_exec                                                
00013c59  ti_sysbios_runtime_Startup_exec                                 
00013c91  ApiMac_convertCapabilityInfo                                    
00013cc7  LED_setOn                                                       
00013cfd  UART2_rxDisable                                                 
00013d33  UDMACC26XX_close                                                
00013d69  ClockP_construct                                                
00013d9d  Csf_setTrackingClock                                            
00013dd1  NOROM_AESStartDMAOperation                                      
00013e05  NOROM_SysCtrlIdle                                               
00013e6d  RF_powerConstraintRelease                                       
00013ed5  RingBuf_getConsume                                              
00013f09  RingBuf_putPointer                                              
00013f3d  macCheckPhyRate                                                 
00013f71  macLowLevelDiags                                                
00013fa5  macRatDisableChannelB                                           
00013fd9  macRxOff                                                        
0001400d  macStopCmd                                                      
00014041  macSymbolTimerCount                                             
00014041  macTimerGetTime                                                 
00014075  macTxAckNotReceivedCallback                                     
000140dd  strncpy                                                         
00014111  ti_sysbios_family_arm_m3_Hwi_Instance_finalize                  
00014145  ti_sysbios_knl_Task_unblockI                                    
00014179  ti_sysbios_runtime_Error_raiseX                                 
000141ad  ti_sysbios_runtime_System_atexit                                
000141e1  ti_sysbios_runtime_System_processAtExit                         
00014249  OsalPort_msgExtract                                             
0001427b  ti_sysbios_family_arm_cc26xx_Timer_setNextTick                  
000142ad  ti_sysbios_gates_GateMutexPri_insertPri                         
000142e1  BIOS_atExitFunc                                                 
00014311  Board_wakeUpExtFlash                                            
00014341  Cllc_getFormingPanId                                            
00014371  Csf_setConfigClock                                              
000143d1  NVSCC26XX_erase                                                 
00014401  Power_releaseConstraint                                         
00014431  Power_setConstraint                                             
00014461  SemaphoreP_construct                                            
000144f1  TRNG_generateEntropy                                            
000144f1  TRNG_generateKey                                                
00014521  Temperature_unregisterNotify                                    
00014581  macRadioSetPanCoordinator                                       
000145b1  macRxHardDisable                                                
000145e1  macSymbolTimerBCWakeUp                                          
00014611  macSymbolTimerICallTimerCback                                   
00014641  macTimerCheckUnAlignedQ                                         
00014671  ti_sysbios_family_arm_cc26xx_Timer_getCurrentTick               
000146a1  ti_sysbios_knl_ClockSupport_init                                
000146d1  ti_sysbios_knl_Clock_Instance_init                              
00014701  ti_sysbios_knl_Clock_getTicksUntilInterrupt                     
00014731  ti_sysbios_knl_Swi_init                                         
00014761  ti_sysbios_knl_Swi_setPri                                       
00014791  ti_sysbios_knl_TaskSupport_start                                
000147c1  ti_sysbios_knl_Task_restore                                     
000147f1  Csf_getDeviceShort                                              
0001481f  OsalPort_msgDequeue                                             
0001484d  OsalPort_msgEnqueue                                             
000148a9  UART2Support_enableInts                                         
000148d7  ti_sysbios_family_arm_m3_Hwi_initStack                          
00014905  GPIO_resetConfig                                                
00014931  GPIO_setInterruptConfig                                         
0001495d  malloc                                                          
00014989  NVS_init                                                        
00014a0d  rf_patch_cpe_ieee_802_15_4                                      
00014a91  macRxSoftDisable                                                
00014abd  macRxSoftEnable                                                 
00014ae9  macSymbolTimerSetRollover                                       
00014b15  sAddrCmp                                                        
00014b41  ti_sysbios_knl_Semaphore_pendTimeout                            
00014b6d  ti_sysbios_knl_Task_init                                        
00014b99  ti_sysbios_runtime_System_putchar                               
00014bc5  List_insert                                                     
00014bef  MAC_SrcMatchDeleteEntry                                         
00014c43  RingBuf_getPointer                                              
00014c6d  radioComputeED                                                  
00014c97  ti_sysbios_knl_Clock_getTimeout                                 
00014cc1  BIOS_init                                                       
00014ce9  BIOS_rtsLock                                                    
00014d39  GPIO_setMux                                                     
00014d61  NOROM_RFCOverrideSearch                                         
00014dd9  Power_registerNotify                                            
00014e79  macRxEnable                                                     
00014f19  ti_sysbios_family_arm_m3_Hwi_construct                          
00014f41  ti_sysbios_family_arm_m3_Hwi_excHandlerAsm                      
00014f69  ti_sysbios_knl_Semaphore_Instance_init                          
00014f91  ti_sysbios_knl_Task_moduleStateCheck                            
00014fb9  ti_sysbios_family_arm_m3_Hwi_taskRestoreHwi                     
00014fb9  ti_sysbios_knl_Task_restoreHwi                                  
00014fe1  Board_init                                                      
00015007  List_put                                                        
0001502d  List_putHead                                                    
00015053  List_remove                                                     
00015079  strncat                                                         
0001509f  ti_sysbios_family_arm_m3_Hwi_pendSV                             
000150c3  ti_sysbios_family_arm_m3_Hwi_return                             
000150c5  ti_sysbios_runtime_System_vprintf                               
000150ed  BIOS_registerRTSLock                                            
00015111  NOROM_OSCHF_TurnOnXosc                                          
00015135  NOROM_RFCDoorbellSendTo                                         
000151a1  SemaphoreP_createBinary                                         
00015231  macRadioSwInit                                                  
00015255  macSetupFsCmd                                                   
00015279  macSymbolTimerPowerDown                                         
0001529d  macTimer                                                        
000152c1  memcmp                                                          
00015309  ti_sysbios_family_arm_cc26xx_Timer_getMaxTicks                  
0001532d  ti_sysbios_family_arm_m3_Hwi_setPriority                        
00015351  ti_sysbios_gates_GateMutexPri_Instance_init                     
00015375  ti_sysbios_knl_Task_allBlockedFunction                          
00015399  ti_sysbios_knl_Task_enter                                       
000153e1  LED_stopBlinking                                                
00015403  List_get                                                        
00015425  OsalPort_msgAllocate                                            
00015469  BIOS_removeRTSLock                                              
00015489  BIOS_rtsUnlock                                                  
000154e9  MAC_SrcMatchAckAllPending                                       
00015529  OsalPort_memcmp                                                 
00015549  OsalPort_msgDeallocate                                          
00015569  Power_unregisterNotify                                          
00015609  RF_setTxPower                                                   
00015629  SemaphoreP_constructBinary                                      
00015649  UART2_read                                                      
00015669  crc_update                                                      
00015689  macGetRadioState                                                
000156a9  macRadioEnergyDetectStop                                        
000156c9  macRadioSetIEEEAddr                                             
000156e9  macRxSFDTimerExpiry                                             
000157e9  ti_sysbios_knl_Clock_create                                     
00015809  ti_sysbios_knl_Task_construct                                   
00015829  OsalPort_buildUint32                                            
00015847  Power_getTransitionLatency                                      
00015865  UART2Support_disableRx                                          
000158a1  macPibIndex                                                     
00015937  __aeabi_lasr                                                    
00015955  ti_sysbios_family_arm_m3_Hwi_switchAndRunFunc                   
00015973  ti_sysbios_knl_Semaphore_create                                 
00015991  ti_sysbios_knl_Semaphore_destruct                               
000159af  ti_sysbios_knl_Task_getModuleStateCheckValue                    
000159cd  Cllc_findDevice                                                 
000159e9  Cllc_securityFill                                               
00015a05  Cllc_setChanMask                                                
00015a21  GPIO_read                                                       
00015a3d  NOROM_ChipInfo_GetChipFamily                                    
00015a59  NOROM_FlashProgram                                              
00015a75  NOROM_FlashSectorErase                                          
00015ac9  NVSCC26XX_getAttrs                                              
00015ae5  NVSCC26XX_lock                                                  
00015b01  RF_ScheduleCmdParams_init                                       
00015b55  RF_getRssi                                                      
00015b71  RF_powerConstraintSet                                           
00015be1  macMcuTimerCapture                                              
00015bfd  macNopBackoffTimerExpiry                                        
00015c19  macRxAckTxDoneCallback                                          
00015c19  macTxAckIsr                                                     
00015c35  macTimerRemoveTimer                                             
00015c89  sAddrExtCmp                                                     
00015cf9  ti_sysbios_knl_Clock_scheduleNextTick                           
00015d15  ti_sysbios_knl_Queue_put                                        
00015d31  ti_sysbios_knl_Swi_construct                                    
00015d4d  ti_sysbios_knl_TaskSupport_swap                                 
00015d5d  ti_sysbios_knl_TaskSupport_swapReturn                           
00015d69  LED_toggle                                                      
00015d83  OsalPort_enterCS                                                
00015d9d  PowerCC26XX_calibrate                                           
00015db7  SystemP_snprintf                                                
00015dd1  copyApiMacAddrToMacAddr                                         
00015deb  macCheckPhyMode                                                 
00015e05  macMcuLongDiv                                                   
00015e1f  ti_sysbios_family_arm_cc26xx_Timer_postInit                     
00015e39  ti_sysbios_knl_Clock_delete                                     
00015e53  ti_sysbios_knl_Semaphore_delete                                 
00015e6d  ti_sysbios_runtime_System_printf                                
00015e87  ti_sysbios_runtime_System_printfExtend                          
00015ea1  GPIO_disableInt                                                 
00015eb9  GPIO_setCallback                                                
00015ed1  Main_assertHandler                                              
00015f19  OsalPort_msgPush                                                
00015f31  PowerCC26XX_schedulerDisable                                    
00015f49  PowerCC26XX_schedulerRestore                                    
00015f61  Power_idleFunc                                                  
00015f79  RF_cancelCmd                                                    
00015fc1  UART2_Params_init                                               
00015fd9  _args_main                                                      
00016069  macRadioSetPanID                                                
00016081  macRadioSetShortAddr                                            
00016099  macRadioSetTxPower                                              
000160b1  macRxBackoffTimerExpiry                                         
000160c9  macRxOnRequest                                                  
000160f9  macSymbolBCTimerPowerUp                                         
00016111  macSymbolTimerRestore                                           
00016129  macSymbolTimerSetTriggerRollover                                
00016141  macTimerSyncRollover                                            
00016159  macTxBackoffTimerExpiry                                         
00016171  macWrapper8ByteUnused                                           
000161b9  __aeabi_lmul                                                    
000161e9  ti_sysbios_family_arm_cc26xx_Timer_Params_init                  
00016201  ti_sysbios_family_arm_cc26xx_Timer_dynamicStub                  
00016219  ti_sysbios_family_arm_m3_Hwi_plug                               
00016231  ti_sysbios_family_arm_m3_Hwi_switchFromBootStack                
00016249  ClockP_getSystemTicks                                           
00016249  ti_sysbios_knl_Clock_getTicks                                   
00016261  ti_sysbios_knl_Swi_Params_init                                  
00016279  ti_sysbios_knl_Swi_destruct                                     
00016291  ti_sysbios_knl_Swi_or                                           
000162a9  ti_sysbios_knl_Task_Params_init                                 
000162c1  ti_sysbios_knl_Task_unblock                                     
000162d9  ti_sysbios_runtime_System_init                                  
00016321  BIOS_exitFunc                                                   
00016337  HwiP_interruptsEnabled                                          
0001634d  HwiP_setFunc                                                    
00016363  OsalPort_leaveCS                                                
0001638f  Util_clearEvent                                                 
000163a5  Util_setEvent                                                   
000163bb  ti_sysbios_gates_GateMutexPri_create                            
000163d1  ti_sysbios_knl_Clock_Instance_finalize                          
000163d1  ti_sysbios_knl_Clock_destruct                                   
000163e7  ti_sysbios_knl_Clock_start                                      
000163fd  ti_sysbios_knl_Task_block                                       
00016415  AESCCM_init                                                     
00016429  BIOS_setThreadType                                              
0001643d  Button_Params_init                                              
00016451  CUI_menuActionBack                                              
00016465  List_clearList                                                  
00016479  MAC_CbackCheckPending                                           
0001648d  MAC_CbackQueryRetransmit                                        
000164a1  MAC_SrcMatchCheckAllPending                                     
000164b5  NOROM_RFCCpeIntGetAndClear                                      
000164c9  PWM_Params_init                                                 
000164dd  PowerCC26X2_calibrate                                           
000164f1  RF_Params_init                                                  
00016505  RF_RatConfigCompare_init                                        
0001652d  RF_flushCmd                                                     
00016541  RF_ratCompare                                                   
00016569  StructRingBuf_construct                                         
0001657d  TRNG_close                                                      
00016591  Temperature_getTemperature                                      
00016609  macMcuInit                                                      
0001661d  macMcuOverflowCapture                                           
00016631  macSendFsCmd                                                    
00016645  sAddrCpy                                                        
00016659  sAddrExtCpy                                                     
0001666d  strlen                                                          
00016695  ti_sysbios_family_arm_m3_Hwi_Params_init                        
000166a9  ti_sysbios_knl_Clock_construct                                  
000166bd  ti_sysbios_knl_Semaphore_construct                              
000166d1  ti_sysbios_knl_Swi_construct2                                   
000166e5  ti_sysbios_family_arm_m3_Hwi_swiDisable                         
000166e5  ti_sysbios_knl_Swi_disable                                      
000166f9  ti_sysbios_knl_Swi_enabled                                      
0001670d  ti_sysbios_family_arm_m3_Hwi_taskDisable                        
0001670d  ti_sysbios_knl_Task_disable                                     
00016721  ti_sysbios_knl_Task_objectCheck                                 
00016735  ti_sysbios_runtime_Memory_free                                  
0001675d  LED_Params_init                                                 
0001676f  RF_getCmdOp                                                     
00016781  RingBuf_construct                                               
00016793  SemaphoreP_pend                                                 
000167c9  ti_sysbios_runtime_System_abort                                 
000167dd  AESCCM_Params_init                                              
000167ed  AESCCM_open                                                     
000167fd  BIOS_exit                                                       
0001680d  BIOS_getCpuFreq                                                 
0001681d  BIOS_start                                                      
0001682d  Cllc_getDefaultKey                                              
0001683d  GPIO_setUserArg                                                 
0001684d  GPIO_write                                                      
0001685d  HwiP_Params_init                                                
0001686d  NOROM_RFCHwIntGetAndClear                                       
0001689d  SwiP_Params_init                                                
000168ad  SwiP_setPriority                                                
000168dd  UART2Support_rxStatus2ErrorCode                                 
000168ed  UART2Support_txDone                                             
000168fd  ti_sysbios_family_arm_cc26xx_Timer_getCount64                   
0001690d  ti_sysbios_family_arm_m3_Hwi_excHandler                         
0001691d  ti_sysbios_family_arm_m3_Hwi_post                               
0001692d  ti_sysbios_knl_Clock_Params_init                                
0001693d  ti_sysbios_knl_Clock_enqueueI                                   
0001694d  ti_sysbios_knl_Idle_run                                         
0001695d  ti_sysbios_knl_Semaphore_Params_init                            
0001696d  ti_sysbios_knl_TaskSupport_glue                                 
0001697d  ti_sysbios_runtime_System_vsnprintf                             
0001698d  ApiMac_mlmeSetReqBool                                           
0001699b  ApiMac_mlmeSetReqUint16                                         
000169a9  ApiMac_mlmeSetReqUint8                                          
000169b7  CryptoKeyPlaintext_initBlankKey                                 
000169c5  CryptoKeyPlaintext_initKey                                      
000169d3  NVS_write                                                       
000169ef  StructRingBuf_isFull                                            
000169fd  UART2_write                                                     
00016a0b  Util_buildUint32                                                
00016a19  __TI_decompress_none                                            
00016a27  ti_sysbios_knl_Clock_initI                                      
00016a35  ti_sysbios_knl_Queue_empty                                      
00016a43  ti_sysbios_knl_Queue_remove                                     
00016a51  AESCCM_close                                                    
00016a5d  BIOS_linkedWithIncorrectBootLibrary                             
00016a69  Cllc_getChanMask                                                
00016a75  ClockP_delete                                                   
00016a81  HwiP_disable                                                    
00016a8d  MAC_PwrMode                                                     
00016a99  NOROM_CPUcpsid                                                  
00016aa5  NOROM_CPUcpsie                                                  
00016abd  NVSCC26XX_unlock                                                
00016ad5  OsalPort_stopTimer                                              
00016ae1  Power_getConstraintMask                                         
00016aed  Power_getDependencyCount                                        
00016af9  RF_powerConstraintGet                                           
00016b05  SemaphoreP_delete                                               
00016b11  UART2Support_disableTx                                          
00016b1d  UART2Support_enableRx                                           
00016b29  UART2Support_enableTx                                           
00016b35  _register_lock                                                  
00016b41  _register_unlock                                                
00016b4d  __TI_zero_init                                                  
00016b59  macLowLevelReset                                                
00016b65  macLowLevelResume                                               
00016b71  macPwrReset                                                     
00016b7d  macRegisterSfdDetect                                            
00016b89  macRxSequenceNum                                                
00016ba1  ti_sysbios_gates_GateMutexPri_construct                         
00016bad  ti_sysbios_heaps_HeapCallback_Instance_init                     
00016bb9  ti_sysbios_knl_ClockSupport_getCurrentTick                      
00016bc5  ti_sysbios_knl_ClockSupport_getMaxTicks                         
00016bd1  ti_sysbios_knl_ClockSupport_setNextTick                         
00016bdd  ti_sysbios_knl_Clock_tick                                       
00016be9  ti_sysbios_knl_Queue_dequeue                                    
00016bf5  ti_sysbios_knl_Queue_enqueue                                    
00016c01  ti_sysbios_knl_Queue_insert                                     
00016c0d  ti_sysbios_knl_Swi_getTrigger                                   
00016c19  ti_sysbios_knl_Task_self                                        
00016c25  ti_sysbios_runtime_System_exit                                  
00016c31  ClockP_Params_init                                              
00016c3b  NVS_erase                                                       
00016c45  NVS_getAttrs                                                    
00016c4f  NVS_read                                                        
00016c59  PWM_close                                                       
00016c63  PWM_setDuty                                                     
00016c6d  PWM_start                                                       
00016c77  UDMACC26XX_hwiIntFxn                                            
00016c81  Util_copyExtAddr                                                
00016c8b  macMcuRandomByte                                                
00016c8b  macRadioRandomByte                                              
00016c95  AESCCM_Operation_init                                           
00016c9d  ApiMac_mlmeSetReqArray                                          
00016ca5  NVSCC26XX_close                                                 
00016cad  RF_RatConfigOutput_init                                         
00016cb5  SemaphoreP_Params_init                                          
00016cbd  UtilTimer_setTimeout                                            
00016cc5  Util_breakUint32                                                
00016ccd  Util_buildUint16                                                
00016cd5  __aeabi_errno_addr                                              
00016cdd  ti_sysbios_family_arm_m3_Hwi_doSwiRestore                       
00016ce5  ti_sysbios_family_arm_m3_Hwi_startup                            
00016ced  ti_sysbios_knl_Idle_loop                                        
00016cf5  AESCCM_oneStepDecrypt                                           
00016cfb  AESCCM_oneStepEncrypt                                           
00016d01  Button_setCallback                                              
00016d07  CUI_paramsInit                                                  
00016d0d  Main_excHandler                                                 
00016d13  NOROM_CPUdelay                                                  
00016d19  NVSCC26XX_control                                               
00016d25  RF_runDirectCmd                                                 
00016d2b  RF_runImmediateCmd                                              
00016d31  UART2Support_powerRelConstraint                                 
00016d37  UART2Support_powerSetConstraint                                 
00016d3d  Util_hiUint16                                                   
00016d43  assertHandler                                                   
00016d4f  macTxBackoffHandler                                             
00016d55  osalHeapAllocFxn                                                
00016d5b  osalHeapFreeFxn                                                 
00016d61  ti_sysbios_family_arm_m3_Hwi_destruct                           
00016d67  ti_sysbios_family_arm_m3_Hwi_doTaskRestore                      
00016d6d  HwiP_restore                                                    
00016d73  ti_sysbios_family_arm_m3_Hwi_setFunc                            
00016d79  ti_sysbios_gates_GateMutexPri_Params_init                       
00016d7f  ti_sysbios_heaps_HeapCallback_alloc                             
00016d85  ti_sysbios_heaps_HeapCallback_free                              
00016d8b  ti_sysbios_heaps_HeapCallback_getStats                          
00016d91  ti_sysbios_heaps_HeapCallback_isBlocking                        
00016d97  ti_sysbios_knl_Clock_stop                                       
00016d9d  ti_sysbios_knl_Queue_Instance_init                              
00016da3  ti_sysbios_knl_Queue_destruct                                   
00016da3  ti_sysbios_knl_Queue_elemClear                                  
00016da9  ti_sysbios_knl_Semaphore_Instance_finalize                      
00016daf  ti_sysbios_knl_Swi_startup                                      
00016db5  ti_sysbios_knl_Task_enable                                      
00016dbb  ApiMac_mcpsDataReq                                              
00016dbf  ApiMac_mlmeSetSecurityReqStruct                                 
00016dc3  ClockP_destruct                                                 
00016dc7  ClockP_getCpuFreq                                               
00016dcb  ClockP_getSystemTickPeriod                                      
00016dcf  ClockP_getTimeout                                               
00016dd3  ClockP_isActive                                                 
00016dd7  ClockP_setTimeout                                               
00016ddb  ClockP_start                                                    
00016ddf  ClockP_stop                                                     
00016de3  HwiP_destruct                                                   
00016de7  HwiP_enableInterrupt                                            
00016deb  HwiP_post                                                       
00016def  HwiP_setPriority                                                
00016df3  NOROM_RFCOverrideUpdate                                         
00016df7  RF_defaultExecutionPolicy                                       
00016dfb  SemaphoreP_destruct                                             
00016dff  SemaphoreP_post                                                 
00016e03  SwiP_destruct                                                   
00016e07  SwiP_disable                                                    
00016e0b  SwiP_getTrigger                                                 
00016e0f  SwiP_or                                                         
00016e13  SystemP_vsnprintf                                               
00016e17  UtilTimer_isActive                                              
00016e1b  UtilTimer_start                                                 
00016e1f  UtilTimer_stop                                                  
00016e23  Util_loUint16                                                   
00016e2b  macPibCheckByPatch                                              
00016e2f  macRadioComputeLQI                                              
00016e33  macRxBackoffHandler                                             
00016e3f  osalHeapIsBlockingFxn                                           
00016e43  ti_sysbios_family_arm_cc26xx_Timer_setPeriod                    
00016e47  ti_sysbios_heaps_HeapCallback_defaultCreate                     
00016e4b  ti_sysbios_knl_Clock_isActive                                   
00016e4f  ti_sysbios_knl_Clock_removeI                                    
00016e53  ti_sysbios_knl_Clock_setTimeout                                 
00016e57  ti_sysbios_knl_Queue_construct                                  
00016e5b  ti_sysbios_knl_Queue_head                                       
00016e5f  ti_sysbios_knl_Queue_next                                       
00016e63  ti_sysbios_knl_Queue_prev                                       
00016e67  ti_sysbios_knl_Swi_postInit                                     
00016e6b  ti_sysbios_knl_TaskSupport_getStackAlignment                    
00016e6f  ti_sysbios_knl_Task_getPri                                      
00016e73  ti_sysbios_runtime_Error_check                                  
00016e77  ti_sysbios_runtime_Memory_getMaxDefaultTypeAlign                
00016e7b  ti_sysbios_runtime_SysCallback_defaultReady                     
00016e7b  ti_sysbios_runtime_SystemSupport_ready                          
00016e7f  ti_sysbios_runtime_System_printf_va                             
00016ecc  __c_args__                                                      
000171b0  __TI_Handler_Table_Base                                         
000171bc  __TI_Handler_Table_Limit                                        
000171e0  __TI_CINIT_Base                                                 
00017208  __TI_CINIT_Limit                                                
00056001  macRxCb                                                         
000571b5  appTaskFxn                                                      
00057a3d  macWrapperAddDevice                                             
00057e75  strtol                                                          
00057fa5  ApiMac_mlmeGetReqUint16                                         
00057fa8  __ccfg                                                          
10030101  FHAPI_start                                                     
1003035d  FHAPI_completeTxCb                                              
10030501  FHAPI_completeRxCb                                              
10030689  FHAPI_sendData                                                  
10030809  FHAPI_reset                                                     
100308d1  FHAPI_getTxParams_old                                           
10030989  FHAPI_startBS                                                   
10030a21  FHAPI_getTxParams                                               
10030a81  FHAPI_getRemDT                                                  
10030ad1  FHAPI_SFDRxCb                                                   
10030b11  FHAPI_stopAsync                                                 
10030b51  FHAPI_setStateCb                                                
10030b81  FHAPI_getTxChHoppingFunc                                        
10030bad  FHAPI_getBitCount                                               
10030bd1  FHDATA_procASYNCReq                                             
10030cb5  FHDATA_CheckMinTxOffTime                                        
10030d61  FHDATA_getPktFromQueue                                          
10030e05  FHDATA_purgeUnSupportedFrameTypes                               
10030e89  FHDATA_purgePktFromQueue                                        
10030efd  FHDATA_requeuePkt                                               
10030f65  FHDATA_getASYNCDelay                                            
10030fb5  FHDATA_chkASYNCStartReq                                         
10030fed  FHDATA_updateCCA                                                
10031011  FHDATA_asyncMinTxOffTimerCb                                     
10031029  FHDATA_checkPktFromQueue                                        
1003103d  FHDATA_procEDFEReq                                              
10031051  FHDATA_startEDFEReq                                             
10031065  FHDATA_startEDFETimer                                           
10031069  FHDH1CF_hashword                                                
10031129  FHDH1CF_getBCChannelNum                                         
100311ad  FHDH1CF_mapChIdxChannel                                         
10031209  FHDH1CF_getCh                                                   
1003125d  FHDH1CF_getChannelNum                                           
100312b1  FHDH1CF_getTxChannelNum                                         
100312f5  FHDH1CF_getBcCh                                                 
10031325  FHIE_genPieContent                                              
10031699  FHIE_parsePie                                                   
1003197d  FHIE_extractPie                                                 
10031ba9  FHIE_parseCommonInformation                                     
10031d91  FHIE_genHie                                                     
10031ec9  FHIE_parseHie                                                   
10031fed  FHIE_genCommonInformation                                       
1003210d  FHIE_genPie                                                     
1003220d  FHIE_getPieContentLen                                           
1003230d  FHIE_extractHie                                                 
100323cd  FHIE_genExcludedChannelRanges                                   
1003248d  FHIE_genBTIE                                                    
10032519  FHIE_getCcaSfdTime                                              
10032599  FHIE_getPieLen                                                  
10032619  FHIE_getHieLen                                                  
10032689  FHIE_genExcludedChannelMask                                     
100326f1  FHIE_getChannelPlan                                             
10032755  FHIE_genUTIE                                                    
100327b1  FHIE_getCommonInformationLen                                    
10032805  FHIE_isChannelPlanValid                                         
10032859  FHIE_getExcludedChannelControl                                  
10032895  FHIE_getSubPie                                                  
100328cf  FHIE_getPie                                                     
10032905  FHIE_gen                                                        
10032939  FHIE_getHie                                                     
1003296d  FHIE_getLen                                                     
1003299d  FHMGR_bcTimerIsrCb                                              
10032acd  FHMGR_updateRadioUCChannel                                      
10032b45  FHMGR_updateRadioBCChannel                                      
10032bb5  FHMGR_ucTimerIsrCb                                              
10032c1d  FHMGR_macStartFHTimer                                           
10032c75  FHMGR_updateHopping                                             
10032cc9  FHMGR_macStartOneShotTimer                                      
10032cf5  FHMGR_BCTimerEventUpd                                           
10032d11  FHMGR_macCancelFHTimer                                          
10032d29  FHMGR_macGetElapsedFHTime                                       
10032d41  FHMGR_pendBcChUpdate                                            
10032d47  FHMGR_pendUcChUpdate                                            
10032d4d  FHNT_purgeEntry                                                 
10032ea1  FHNT_getRemoveEntryFromTemp                                     
10032fe1  FHNT_getEntry                                                   
10033119  FHNT_AddDeviceCB                                                
10033209  FHNT_createEntry                                                
100332c5  FHNT_createFixedEntry                                           
10033381  FHNT_addTempEUI                                                 
10033429  FHNT_initTempTable                                              
100334c5  FHNT_getRemoveEntry                                             
1003355d  FHNT_getRemoveFixedEntry                                        
100335f5  FHNT_getFixedEntry                                              
10033671  FHNT_getNTIndexFromTempIndex                                    
100336e5  FHNT_getOptEntry                                                
1003374d  FHNT_addOptEntry                                                
100337b1  FHNT_DelDeviceCB                                                
10033811  FHNT_reset                                                      
100338c1  FHNT_getFixedNTIndexFromTempIndex                               
10033915  FHNT_putEntry                                                   
10033969  FHNT_getAvailEntry                                              
100339b1  FHNT_putFixedEntry                                              
100339f9  FHNT_getEUI                                                     
10033a3d  FHNT_purgeTimerIsrCb                                            
10033a75  FHNT_init                                                       
10033aa9  FHNT_assessTime                                                 
10033ac9  FHPIB_set                                                       
10033ca5  FHPIB_get                                                       
10033cf5  FHPIB_getLen                                                    
10033d25  FHPIB_getIndex                                                  
10033d41  FHPIB_reset                                                     
10033d59  FHSM_event                                                      
10033d9d  FSM_transaction_debug                                           
10033dcd  FHUTIL_adjBackOffDur                                            
10033f09  FHUTIL_getBcTxParams                                            
10033fc9  FHUTIl_updateBTIE                                               
1003404d  FHUTIL_getTxChannel                                             
100340cd  FHUTIL_getCurBfio                                               
10034149  FHUTIL_getGuardTime                                             
100341c1  FHUTIL_getBitCounts                                             
10034219  FHUTIL_getChannelSpacing                                        
10034261  FHUTIL_getCurUfsi                                               
100342a9  FHUTIL_getCh0                                                   
100342e1  FHUTIL_getMaxChannels                                           
10034319  FHUTIL_getTxUfsi                                                
10034349  FHUTIL_updateBcNumChannels                                      
10034375  FHUTIL_updateUcNumChannels                                      
100343a1  FHUTIL_getUcChannel                                             
100343c9  FHUTIL_getElapsedTime                                           
100343e5  FHUTIL_compBfioTxTime                                           
100343fd  FHUTIL_assert                                                   
10034411  FHUTIL_calcUfsi                                                 
1003441b  FHUTIL_elapsedTime                                              
1003441f  FHUTIL_noAction                                                 
10034421  macTxBeaconCompleteCallback                                     
10034545  macBeaconStartContinue                                          
100346a1  macBeaconPrepareCallback                                        
10034715  macBeaconCheckStartTime                                         
10034781  macBeaconTxCallback                                             
100347ed  macBeaconSetupBroadcast                                         
10034849  MAC_InitBeaconCoord                                             
10034895  macStartBeaconPrepareCallback                                   
100348e1  macBeaconSchedRequested                                         
10034921  macBeaconClearIndirect                                          
1003495d  macBeaconPeriodCallback                                         
10034999  macOutgoingNonSlottedTx                                         
100349d5  macBeaconSetPrepareTime                                         
10034a01  macBeaconCoordReset                                             
10034a25  macBeaconBattLifeCallback                                       
10034bcd  macApiSyncReq                                                   
10034e8d  macSyncTimeoutCallback                                          
10035065  macBeaconSyncLoss                                               
100350ed  macCheckPendAddr                                                
10035159  MAC_InitBeaconDevice                                            
10035229  macBeaconStartFrameResponseTimer                                
10035289  macBeaconStopTrack                                              
100352cd  macIncomingNonSlottedTx                                         
10035311  macStartBroadcastPendTimer                                      
10035355  macBroadcastPendCallback                                        
10035369  macBeaconSetSched                                               
10035421  macBeaconSetupCap                                               
10035535  macBeaconRequeue                                                
10035575  macBeaconInit                                                   
100355a9  macBeaconReset                                                  
100355dd  macBeaconCheckSched                                             
1003560d  macBuildAssociateRsp                                            
1003576d  macBuildBeacon                                                  
100358c5  macIndirectExpire                                               
100359d5  macStartSetParams                                               
10035ad5  macStartBegin                                                   
10035bb5  macBuildPendAddr                                                
10035c85  macCoordReset                                                   
10035d4d  macBuildRealign                                                 
10035e09  macIndirectSend                                                 
10035eb1  macApiPurgeReq                                                  
10035f55  macRxDataReq                                                    
10036085  macIndirectTxFrame                                              
100360fd  macApiOrphanRsp                                                 
10036171  macIndirectRequeueFrame                                         
100361e5  macIndirectMark                                                 
1003624d  MAC_InitCoord                                                   
100362b1  macRxAssociateReq                                               
10036309  macStartContinue                                                
10036355  macRxOrphan                                                     
10036399  macApiAssociateRsp                                              
100363d9  macStartComplete                                                
10036419  macRxBeaconReq                                                  
10036455  MAC_McpsPurgeReq                                                
10036471  MAC_MlmeAssociateRsp                                            
1003648d  MAC_MlmeOrphanRsp                                               
100364a9  macPendAddrLen                                                  
100364c5  macRxPanConflict                                                
100364e1  MAC_MlmeStartReq                                                
100364f9  macTxCompleteCallback                                           
10036729  MAC_McpsDataReq                                                 
100368cd  macDataTxSend                                                   
10036ba1  macAllocTxBuffer                                                
10036cd9  macRxCompleteCallback                                           
10036e05  MAC_McpsDataAlloc                                               
10036ef5  macApiDataReq                                                   
10036fc5  macAutoPendMaintainSrcMatchTable                                
1003712d  macDataTxEnqueue                                                
10037279  macDataReset                                                    
100372f5  macFrameDurationSubG                                            
10037361  macCheckIndPacket                                               
100373b9  macDataRxInd                                                    
100373fd  macRxCheckMACPendingCallback                                    
1003742d  macRxCheckPendingCallback                                       
10037455  macDataRxMemAlloc                                               
10037479  macFrameDuration                                                
1003749d  macFrameDurationIeee                                            
100374c1  macDataSend                                                     
100374e1  macCheckSched                                                   
100374fd  macDataTxTimeAvailable                                          
10037515  macDataRxMemFree                                                
10037529  macDataTxDelayCallback                                          
1003753d  macSetSched                                                     
10037549  macBuildAssociateReq                                            
10037699  macApiAssociateReq                                              
100377a1  macDeviceReset                                                  
10037871  macRxAssocRsp                                                   
1003792d  macAssocDataRxInd                                               
100379b1  macPollDataRxInd                                                
10037a35  macRxCoordRealign                                               
10037ab9  macApiPollReq                                                   
10037b25  macAssocDataReqComplete                                         
10037b91  macPollDataReqComplete                                          
10037bed  macPollFrameResponseTimeout                                     
10037c45  MAC_InitDevice                                                  
10037c99  macAssocDataReq                                                 
10037ced  macAssocFailed                                                  
10037d35  macStartFrameResponseTimer                                      
10037d79  macAssociateCnf                                                 
10037db5  macAssocFrameResponseTimeout                                    
10037de9  macPollRxDisassoc                                               
10037e15  macStartResponseTimer                                           
10037e3d  macPollCnf                                                      
10037e61  macPollRxAssocRsp                                               
10037e85  macAssocRxDisassoc                                              
10037ea5  MAC_MlmeAssociateReq                                            
10037ebd  MAC_MlmePollReq                                                 
10037ed5  macPanConflictComplete                                          
10037ee9  macBuildPayloadIes                                              
100380d9  macBuildPayloadCoexistIe                                        
1003818d  macParseHeaderIes                                               
1003827d  macParsePayloadIes                                              
10038349  macUpdateHeaderIEPtr                                            
100383c5  macMlmeSubIePresent                                             
1003842b  macIeCoexistIePresent                                           
10038489  macUpdatePayloadIEPtr                                           
100384e5  macIeFreeList                                                   
10038501  macSendDataMsg                                                  
100385f1  macCbackForEvent                                                
100386a1  macSendMsg                                                      
1003871d  macExecute                                                      
10038791  macMainReset                                                    
100387f9  mac_msg_deallocate                                              
10038845  macSetEvent16                                                   
10038861  macSetEvent                                                     
1003887d  macStateIdleOrPolling                                           
10038899  macMainReserve                                                  
100388b1  macStateIdle                                                    
100388c9  macStateScanning                                                
100388e1  macMainSetTaskId                                                
100388f1  macBuildHeader                                                  
10038c1d  macBuildCommonReq                                               
10038e15  MAC_InitFH                                                      
10038f61  macBuildDisassociateReq                                         
10039095  macSetDefaultsByPhyID                                           
100391c9  MAC_MlmeResetReq                                                
100392e1  macBuildWSAsyncReq                                              
100393ed  macCommStatusInd                                                
100394f1  macBuildBeaconNotifyInd                                         
100395bd  macRxBeacon                                                     
100397c9  macDisassocComplete                                             
10039855  macBuildWSAsyncMsg                                              
100398d9  macRxDisassoc                                                   
10039955  macApiDisassociateReq                                           
100399cd  MAC_Init                                                        
10039a41  macCoordDestAddrCmp                                             
10039a99  macApiWSAsyncReq                                                
10039ae9  macDestAddrCmp                                                  
10039b35  macDestSAddrCmp                                                 
10039b81  macApiPending                                                   
10039bc1  macCoordAddrCmp                                                 
10039bfd  macSetDefaultsByRE                                              
10039c35  macGetCoordAddress                                              
10039c69  MAC_YieldReq                                                    
10039c95  macConflictSyncLossInd                                          
10039cbd  MAC_EnableFH                                                    
10039ce1  MAC_MlmeFHGetReq                                                
10039d01  MAC_MlmeFHGetReqSize                                            
10039d21  MAC_MlmeFHSetReq                                                
10039d41  MAC_StartFH                                                     
10039d61  macDefaultAction                                                
10039d81  macGetMyAddrMode                                                
10039da1  macWSAsyncCnf                                                   
10039dc1  MAC_MlmeDisassociateReq                                         
10039ddd  MAC_MlmeSyncReq                                                 
10039df5  MAC_MlmeWSAsyncReq                                              
10039e0d  macApiBadState                                                  
10039e25  macApiUnsupported                                               
10039e3d  macTxCsmaDelay                                                  
10039e55  MAC_RandomByte                                                  
10039e69  macBcTimerHandler                                               
10039e7d  macIsCsmOperational                                             
10039e91  macSecCpy                                                       
10039ea5  macUpdateCsmPhyParam                                            
10039eb9  macGetCSMPhy                                                    
10039ec1  macNoAction                                                     
10039ec5  MAC_MlmeSetReq                                                  
1003a115  macMRFSKGetPhyDesc                                              
1003a169  MAC_MlmeGetReq                                                  
1003a1b9  MAC_GetPHYParamReq                                              
1003a1f9  MAC_SetPHYParamReq                                              
1003a239  macPibReset                                                     
1003a275  MAC_MlmeGetReqSize                                              
1003a29d  macIEEEGetPhyDesc                                               
1003a2ad  macApiScanReq                                                   
1003a599  macScanRxBeacon                                                 
1003a839  macScanComplete                                                 
1003a8b9  macScanStartTimer                                               
1003a931  macScanCnfInit                                                  
1003a96d  macScanFailedInProgress                                         
1003a99d  MAC_MlmeSetSecurityReq                                          
1003ac6d  macSecurityPibReset                                             
1003af09  MAC_MlmeGetSecurityReq                                          
1003b101  MAC_MlmeGetSecurityReqSize                                      
1003b159  MAC_MlmeGetPointerSecurityReq                                   
1003b199  macSecurityPibIndex                                             
1003b9f1  macUpdatePanId                                                  
1003ba75  macGetEUIIndex                                                  
1003bb81  macGetEUI                                                       
1003c6e9  macWrapperGetDefaultSourceKey                                   
20000000  ti_sysbios_family_arm_m3_Hwi_ramVectors                         
2000010c  RAM_MAC_BASE_ADDR                                               
20001873  AppTaskId                                                       
20001884  pMacCbackQueryRetransmit                                        
20001888  pMacCbackCheckPending                                           
2000188c  macSem                                                          
200018cc  macTask                                                         
20002125  Main_assertReason                                               
20002128  macUser0Cfg                                                     
2000213c  appTask                                                         
20002194  Main_user1Cfg                                                   
20002820  cuiMultiMenu                                                    
200029d0  menuBuff                                                        
20003284  Cllc_events                                                     
20003286  Cllc_devShortAddr                                               
200032d8  Cllc_statistics                                                 
20003360  Cllc_associatedDevList                                          
200035b8  ti_sysbios_knl_Idle_initDone                                    
200035bc  PowerCC26XX_taskKey                                             
200035c0  PowerCC26XX_swiKey                                              
200035c4  ti_sysbios_knl_Task_defaultStackHeap                            
200035c8  ti_sysbios_runtime_Memory_defaultHeapInstance                   
200035cc  ti_sysbios_gates_GateMutexPri_Module_state                      
200035d4  ti_sysbios_heaps_HeapCallback_Module_state                      
200035dc  ti_sysbios_knl_Semaphore_Module_state                           
200035ec  ti_sysbios_family_arm_cc26xx_Timer_Module_state                 
200035f8  ti_sysbios_runtime_Error_ignore                                 
20003604  ti_sysbios_runtime_System_Module_state                          
20003610  ti_sysbios_hal_Seconds_Module_state                             
20003624  BIOS_heapCallbackObject                                         
20003640  BIOS_rtsGate                                                    
2000365c  ti_sysbios_knl_Swi_Module_state                                 
20003684  BIOS_Module_state                                               
200036b0  ti_sysbios_family_arm_m3_Hwi_Module_state                       
200036ec  ti_sysbios_knl_Task_Module_state                                
20003728  ti_sysbios_knl_Idle_taskStruct                                  
20003780  ti_sysbios_knl_ClockSupport_timerStruct                         
200037e0  ti_sysbios_knl_Clock_Module_state                               
20003849  savedCllcState                                                  
2000384a  permitJoining                                                   
20003850  Csf_events                                                      
20003880  Csf_keys                                                        
20003894  csfCuiHndl                                                      
20003898  collectorStatusLine                                             
2000389c  deviceStatusLine                                                
200038a0  numJoinDevStatusLine                                            
200039f8  taskCnt                                                         
20003a08  heapmgrMemFreeTotal                                             
20003a0c  heapmgrMemFreeError                                             
20003a18  HEAPMGR_SIZE                                                    
20003a1c  taskTbl                                                         
20003b84  PowerCC26X2_module                                              
20003cf4  RF_cmdNop                                                       
20003d04  RF_cmdNopFg                                                     
20003d14  RF_cmdRxAckCmd                                                  
20003d28  RF_cmdFsRx                                                      
20003d40  RF_cmdFsTx                                                      
20003d58  RF_cmdIEEETx                                                    
20003d70  RF_cmdRadioSetup                                                
20003d90  RF_cmdIEEECsma                                                  
20003db0  RF_cmdIEEERx                                                    
20003df2  Collector_events                                                
20003e2c  Collector_statistics                                            
20003e68  Collector_macCallbacks                                          
20003eb0  gpioPinConfigs                                                  
20003f2e  gAction                                                         
20003f2f  NVOCMP_size                                                     
20003f5c  NVOCMP_nvHandle                                                 
20003fa4  fhObject                                                        
20004010  RF_prop_ieee154                                                 
20004020  txPowerTable_2400_pa5                                           
20004070  appSubMenu                                                      
200040c8  ieeeCoexEnabled                                                 
200040ca  rxCmdHandle                                                     
200040cc  macRfDrvTblPtr                                                  
200040d0  lastPostCmd                                                     
200040d4  macSfdDetectCback                                               
200040d8  macTxTimestamp                                                  
200040dc  pMacRadioConfig                                                 
200040f0  macRxOutputIeee                                                 
20004100  macFrmFilter                                                    
20004110  commissionSubMenu                                               
20004150  configureSubMenu                                                
20004190  csfMainMenu                                                     
200041d4  pRfMode                                                         
200041d8  pRfPowerTable                                                   
200041dc  pMaxPower                                                       
200041e0  RF_handle                                                       
200041e4  macPhyTxPower                                                   
200041ec  RF_params                                                       
2000420c  appTaskId                                                       
20004214  appEvents                                                       
2000421c  ApiMac_extAddr                                                  
20004224  appSem                                                          
20004240  macBeaconPayload                                                
20004274  pMacDataTx                                                      
20004278  macDataTxIndirect                                               
2000427c  macDataRequeueIndirect                                          
20004280  macDataRxBeaconCritical                                         
20004284  macDataTxBeaconComplete                                         
20004288  macDataSetSched                                                 
2000428c  macDataCheckSched                                               
20004290  macDataCheckTxTime                                              
20004294  macDataBeaconRequeue                                            
20004298  csmPhy                                                          
2000429c  macTimerRollover                                                
200042a0  macTimerNewRollover                                             
200042a4  macSpecUsecsPerSymbol                                           
200042a8  macPrevPeriodRatCount                                           
200042ac  macSymbolTimerRollover                                          
200042b0  macSymbolTimerTrigger                                           
200042cc  macTxSlottedDelayFactor                                         
200042cd  macTxType                                                       
200042ce  macTxBe                                                         
200042cf  macTxGpInterframeDelay                                          
200042d0  txAckReq                                                        
200042d3  txSeqn                                                          
200042d5  numTx                                                           
200042d6  macTxCsmaBackoffDelay                                           
200042d8  macCsmaRtcTimerId                                               
200042dc  macAckDbg                                                       
200042f0  _hposcCoeffs                                                    
20004314  macActionSet                                                    
20004358  macBeaconMargin                                                 
20004390  macStateTbl                                                     
200043b4  macCfg                                                          
200043c4  pOverrides_ieee154                                              
200043dc  pClockHandleEDScan                                              
200043e0  lastRatChanA                                                    
200043e1  lastRatChanB                                                    
200043e2  macRxCmdActive                                                  
200043e3  macTxCmdActive                                                  
200043e4  macFsCmdActive                                                  
200043e5  macRxPreempted                                                  
200043e6  numRfCmd                                                        
200043e7  numRxCmd                                                        
200043e8  numRxPostCmd                                                    
200043e9  CryptoResourceCC26XX_pollingFlag                                
200043ec  txCmdHandle                                                     
200043ee  macRadioAckIeeeFrame                                            
200043f4  _lock                                                           
200043f8  _unlock                                                         
200043fc  RFCC26XX_schedulerPolicy                                        
20004414  macSrcMatchIsAckAllPending                                      
20004415  macSrcResIndex                                                  
20004418  macTasksEvents                                                  
2000441c  macTxSlottedDelay                                               
2000441d  bInSwi                                                          
2000441e  macSrcMatchIsEnabled                                            
2000441f  macRadioYielded                                                 
20004424  errno                                                           
20004428  main_func_sp                                                    
2000442e  macSleepState                                                   
20004430  ti_sysbios_runtime_Startup_done                                 
20004438  ti_sysbios_knl_Idle_taskStack                                   
20004638  uart2CC26X2Objects                                              
20004930  enhancedAckBuf                                                  
20004a2c  ti_sysbios_family_arm_m3_Hwi_dispatchTable                      
20004b04  LEDObjects                                                      
20004bbc  macPib                                                          
20004c44  gpioCallbackFunctions                                           
20004cc0  gpioUserArgs                                                    
20004d3c  macScan                                                         
20004d90  CryptoResourceCC26XX_accessSemaphore                            
20004de0  CryptoResourceCC26XX_operationSemaphore                         
20004e30  cuiMultiMenuData                                                
20004e7c  ButtonObjects                                                   
20004ec4  macSecurityPib                                                  
20004f04  macBeaconCoord                                                  
20004f40  macDeviceAction1                                                
20004f78  macBeaconDevice                                                 
20004fac  macMgmtAction1                                                  
20004fdc  macSrcExtAddrList                                               
2000500c  ti_sysbios_knl_Swi_readyQs                                      
2000503c  ti_sysbios_knl_Task_readyQs                                     
2000506c  macCoord                                                        
20005098  macDevice                                                       
200050c4  macRxFilter                                                     
200050c5  rxPromiscuousMode                                               
200050c8  rxSeqNum                                                        
200050d0  macRxDataEntryOffset                                            
200050d4  rxRadioBufferPtr                                                
200050e0  macRxDataEntryQueue                                             
200050e8  coexMetricsStruct                                               
200050f4  macStatistics                                                   
20005148  macBeacon                                                       
20005168  udmaCC26XXObject                                                
200051f8  CryptoResourceCC26XX_hwi                                        
20005214  macCoordAction2                                                 
20005230  macReset                                                        
2000524c  macSrcShortAddrList                                             
20005268  aesccmCC26XXObjects                                             
20005280  macScanAction                                                   
200052c0  macDeviceAction2                                                
200052d4  macMgmtAction2                                                  
200052e8  macBeaconDeviceAction                                           
200052f8  macCoordAction3                                                 
20005308  macData                                                         
20005318  macDataTxDelay                                                  
20005334  macMain                                                         
20005348  macBeaconCoordAction1                                           
20005350  macCoordAction1                                                 
20005358  AESCCM_handle                                                   
2000535c  macCryptoDrvTblPtr                                              
20005360  macRxSymbol                                                     
20005364  macTimerActive                                                  
20005368  nvsCC26XXObjects                                                
2000536c  ti_sysbios_runtime_System_atexitHandlers                        
20005370  timerAlignedQ                                                   
20005374  timerUnalignedQ                                                 
2000537a  lastRxPriority                                                  
2000537b  lastTxPriority                                                  
2000537c  macAckTxActive                                                  
2000537d  macMgmt                                                         
2000537e  macPanCoordinator                                               
2000537f  macPhyChannel                                                   
20005380  macPwr                                                          
20005381  macRxActive                                                     
20005382  macRxEnableFlags                                                
20005383  macRxOutgoingAckFlag                                            
20005384  macSymbolTimerImpending                                         
20005385  macTaskId                                                       
20005386  macTxActive                                                     
20005387  macUnitBackoffPeriod                                            
20005388  rxFhRsl                                                         
20005389  heapStart                                                       
20013aa0  __stack                                                         
20013aa0  heapEnd                                                         
20014000  __STACK_END                                                     
20014000  __STACK_TOP                                                     
ffffffff  __TI_pprof_out_hndl                                             
ffffffff  __TI_prof_data_size                                             
ffffffff  __TI_prof_data_start                                            
ffffffff  __binit__                                                       
ffffffff  binit                                                           
UNDEFED   ITM_flush                                                       
UNDEFED   ITM_restore                                                     
UNDEFED   PIN_hwi_bypass                                                  
UNDEFED   PWM_config                                                      
UNDEFED   PWM_count                                                       
UNDEFED   SHT$$INIT_ARRAY$$Base                                           
UNDEFED   SHT$$INIT_ARRAY$$Limit                                          

[1466 symbols]
